Archive member included to satisfy reference by file (symbol)

C:/Program Files/Microchip/xc32/v5.00/bin/bin/../../lib/gcc/pic32c/13.2.1/../../../../pic32c/lib/thumb/v8-m.base/nofp\libpic32c.a(data_init.o)
                              build/default/production/_ext/1171490990/startup_xc32.o (__pic32c_data_initialization)
C:/Program Files/Microchip/xc32/v5.00/bin/bin/../../lib/gcc/pic32c/13.2.1/../../../../pic32c/lib/thumb/v8-m.base/nofp\libc-size-musl.a(memcpy.o)
                              build/default/production/_ext/1593096446/plib_nvmctrl.o (memcpy)
C:/Program Files/Microchip/xc32/v5.00/bin/bin/../../lib/gcc/pic32c/13.2.1/../../../../pic32c/lib/thumb/v8-m.base/nofp\libc-musl.a(__libc_start_main.o)
                              build/default/production/_ext/1171490990/startup_xc32.o (__libc_init_array)
C:/Program Files/Microchip/xc32/v5.00/bin/bin/../../lib/gcc/pic32c/13.2.1/../../../../pic32c/lib/thumb/v8-m.base/nofp\libc-musl.a(libc.o)
                              C:/Program Files/Microchip/xc32/v5.00/bin/bin/../../lib/gcc/pic32c/13.2.1/../../../../pic32c/lib/thumb/v8-m.base/nofp\libc-musl.a(__libc_start_main.o) (__progname_full)
C:/Program Files/Microchip/xc32/v5.00/bin/bin/../../lib/gcc/pic32c/13.2.1/../../../../pic32c/lib/thumb/v8-m.base/nofp\libc-musl.a(__environ.o)
                              C:/Program Files/Microchip/xc32/v5.00/bin/bin/../../lib/gcc/pic32c/13.2.1/../../../../pic32c/lib/thumb/v8-m.base/nofp\libc-musl.a(__libc_start_main.o) (__environ)
C:/Program Files/Microchip/xc32/v5.00/bin/bin/../../lib/gcc/pic32c/13.2.1/../../../../pic32c/lib/thumb/v8-m.base/nofp\libpic32c.a(pic32_data_init_clear.o)
                              (__dinit_clear_needed)
C:/Program Files/Microchip/xc32/v5.00/bin/bin/../../lib/gcc/pic32c/13.2.1/../../../../pic32c/lib/thumb/v8-m.base/nofp\libpic32c.a(pic32_data_init_copy.o)
                              (__dinit_copy_needed)

Microchip PIC32 Memory-Usage Report

ROM Program-Memory Usage
section                    address  length [bytes]      (dec)  Description
-------                 ----------  -------------------------  -----------
.vectors                         0          0x15c         348   
.text                        0x15c           0x20          32  App's exec code 
.rodata.Hrudayat_Vaje_S      0x17c        0x13ffe       81918   
.text.EVSYS_Initialize     0x1417a            0x2           2   
.rodata.attention_clear    0x1417c        0x114c0       70848   
.text.CLOCK_Initialize     0x2563c          0x100         256   
.text.EIC_Initialize       0x2573c           0x9e         158   
.text.TC0_Callback         0x257da           0x8c         140   
.text.EIC_OTHER_Interru    0x25866           0x76         118   
.dinit                     0x258dc           0x70         112   
.text.__libc_start_init    0x2594c           0x5c          92   
.text.TC0_TimerInitiali    0x259a8           0x56          86   
.text.Reset_Handler        0x259fe           0x54          84   
.text.DAC_Initialize       0x25a52           0x46          70   
.text                      0x25a98           0x40          64  App's exec code 
.text.TC0_TimerInterrup    0x25ad8           0x3c          60   
.text.NVIC_Initialize      0x25b14           0x3a          58   
.text.PM_Initialize        0x25b4e           0x38          56   
.text.PORT_Initialize      0x25b86           0x36          54   
.text.EIC_CallbackRegis    0x25bbc           0x36          54   
.text.SYS_Initialize       0x25bf2           0x34          52   
.text.Dummy_Handler        0x25c26            0x2           2   
.text.__pic32c_data_ini    0x25c28           0x34          52   
.text.main                 0x25c5c           0x2c          44   
.text.DAC_DataWrite        0x25c88           0x22          34   
.text.TC0_TimerStart       0x25caa           0x20          32   
.text.SW0_Callback         0x25cca           0x1e          30   
.text.__dinit_copy         0x25ce8           0x1e          30   
.text.NonMaskableInt_Ha    0x25d06            0x2           2   
.rodata                    0x25d08           0x14          20  Read-only const 
.text.NVMCTRL_Initializ    0x25d1c           0x12          18   
.text.__dinit_clear        0x25d2e           0x12          18   
.text.TC0_TimerCallback    0x25d40            0xe          14   
.text.__dummy_decompres    0x25d4e            0x4           4   
.text.HardFault_Handler    0x25d52            0x2           2   
.text.Dummy_App_Func       0x25d54            0x2           2   
.text.__dummy_init_tls     0x25d56            0x2           2   
.text.__dummy              0x25d58            0x2           2   
      Total ROM used  :     0x25d5a      154970  29.6% of 0x80000
        --------------------------------------------------------------------------
         Total Program Memory used  :     0x25d5a      154970  29.6% of 0x80000
        --------------------------------------------------------------------------


RAM Data-Memory Usage
section                    address  length [bytes]      (dec)  Description
-------                 ----------  -------------------------  -----------
.bss.eicCallbackObject  0x20000000           0xc0         192   
.bss                    0x200000c0           0x50          80  Uninitialized data 
.bss                    0x20000110           0x1c          28  Uninitialized data 
.bss.TC0_CallbackObject 0x2000012c            0x8           8   
.bss.audio_index        0x20000134            0x4           4   
.bss                    0x20000138            0x4           4  Uninitialized data 
.bss                    0x2000013c            0x4           4  Uninitialized data 
.bss.sw0_pressed        0x20000140            0x1           1   
.data.attention_clear_a 0x20000144            0x4           4   
.data.Hrudayat_Vaje_Som 0x20000148            0x4           4   
         Total RAM used  :       0x149         329  0.5% of 0x10000
        --------------------------------------------------------------------------
            Total Data Memory used  :       0x149         329  0.5% of 0x10000
        --------------------------------------------------------------------------


Dynamic Data-Memory Reservation
section                    address  length [bytes]      (dec)  Description
-------                 ----------  -------------------------  -----------
heap                    0x20000150          0x200         512  Reserved for heap 
stack                   0x20000368         0xfc88       64648  Reserved for stack 

        --------------------------------------------------------------------------

Microchip PIC32 Memory-Usage Report By Module

        text        data         bss         dec         hex    basename                   filename
--------------------------------------------------------------------------------
       81918           4           0       81922       14002    Marathi_audio.o        build/default/production/_ext/471191132/Marathi_audio.o
       70848           4           0       70852       114c4    alert_audio.o          build/default/production/_ext/471191132/alert_audio.o
         330           0         192         522         20a    plib_eic.o             build/default/production/_ext/60167341/plib_eic.o
         350           0           0         350         15e    interrupts.o           build/default/production/_ext/1171490990/interrupts.o
         256           0           0         256         100    plib_clock.o           build/default/production/_ext/1984496892/plib_clock.o
         214           0           5         219          db    main.o                 build/default/production/_ext/1360937237/main.o
         192           0           8         200          c8    plib_tc0.o             build/default/production/_ext/829342655/plib_tc0.o
         112           0           0         112          70    data_init              data_init
         104           0           0         104          68    plib_dac.o             build/default/production/_ext/60166132/plib_dac.o
          64           8          28         100          64    crtbegin.o             C:/Program Files/Microchip/xc32/v5.00/bin/bin/../../lib/gcc/pic32c/13.2.1/thumb/v8-m.base/nofp/crtbegin.o
          94           0           0          94          5e    __libc_start_main.o    libc-musl.a
          86           0           0          86          56    startup_xc32.o         build/default/production/_ext/1171490990/startup_xc32.o
          78           0           4          82          52    data_init.o            libpic32c.a
          80           0           0          80          50    initialization.o       build/default/production/_ext/1171490990/initialization.o
           0           0          80          80          50    libc.o                 libc-musl.a
          58           0           0          58          3a    plib_nvic.o            build/default/production/_ext/1865468468/plib_nvic.o
          56           0           0          56          38    plib_pm.o              build/default/production/_ext/829342769/plib_pm.o
          54           0           0          54          36    plib_port.o            build/default/production/_ext/1865521619/plib_port.o
          30           0           0          30          1e    pic32_data_init_copy.o libpic32c.a
          18           0           0          18          12    plib_nvmctrl.o         build/default/production/_ext/1593096446/plib_nvmctrl.o
          18           0           0          18          12    pic32_data_init_clear.olibpic32c.a
          16           0           0          16          10    crtn.o                 C:/Program Files/Microchip/xc32/v5.00/bin/bin/../../lib/gcc/pic32c/13.2.1/thumb/v8-m.base/nofp/crtn.o
           8           0           0           8           8    crti.o                 C:/Program Files/Microchip/xc32/v5.00/bin/bin/../../lib/gcc/pic32c/13.2.1/thumb/v8-m.base/nofp/crti.o
           4           0           0           4           4    exceptions.o           build/default/production/_ext/1171490990/exceptions.o
           0           0           4           4           4    __environ.o            libc-musl.a
           2           0           0           2           2    plib_evsys.o           build/default/production/_ext/1986646378/plib_evsys.o
--------------------------------------------------------------------------------
      154990          16         321      155327       25ebf    dist/default/production/PIC32CM_SmokeDetector_Audio.X.production.elf


Discarded input sections

 .text          0x00000000        0x0 C:/Program Files/Microchip/xc32/v5.00/bin/bin/../../lib/gcc/pic32c/13.2.1/thumb/v8-m.base/nofp/crti.o
 .data          0x00000000        0x0 C:/Program Files/Microchip/xc32/v5.00/bin/bin/../../lib/gcc/pic32c/13.2.1/thumb/v8-m.base/nofp/crti.o
 .bss           0x00000000        0x0 C:/Program Files/Microchip/xc32/v5.00/bin/bin/../../lib/gcc/pic32c/13.2.1/thumb/v8-m.base/nofp/crti.o
 .xc_stack_usage.hdr
                0x00000000        0xe C:/Program Files/Microchip/xc32/v5.00/bin/bin/../../lib/gcc/pic32c/13.2.1/thumb/v8-m.base/nofp/crti.o
 .xc_stack_usage
                0x00000000       0x26 C:/Program Files/Microchip/xc32/v5.00/bin/bin/../../lib/gcc/pic32c/13.2.1/thumb/v8-m.base/nofp/crti.o
 .data          0x00000000        0x4 C:/Program Files/Microchip/xc32/v5.00/bin/bin/../../lib/gcc/pic32c/13.2.1/thumb/v8-m.base/nofp/crtbegin.o
 .rodata        0x00000000       0x24 C:/Program Files/Microchip/xc32/v5.00/bin/bin/../../lib/gcc/pic32c/13.2.1/thumb/v8-m.base/nofp/crtbegin.o
 .xc_stack_usage
                0x00000000       0x3c C:/Program Files/Microchip/xc32/v5.00/bin/bin/../../lib/gcc/pic32c/13.2.1/thumb/v8-m.base/nofp/crtbegin.o
 .xc_stack_usage.hdr
                0x00000000        0xe C:/Program Files/Microchip/xc32/v5.00/bin/bin/../../lib/gcc/pic32c/13.2.1/thumb/v8-m.base/nofp/crtbegin.o
 .text          0x00000000        0x0 build/default/production/_ext/1984496892/plib_clock.o
 .data          0x00000000        0x0 build/default/production/_ext/1984496892/plib_clock.o
 .bss           0x00000000        0x0 build/default/production/_ext/1984496892/plib_clock.o
 .text          0x00000000        0x0 build/default/production/_ext/60166132/plib_dac.o
 .data          0x00000000        0x0 build/default/production/_ext/60166132/plib_dac.o
 .bss           0x00000000        0x0 build/default/production/_ext/60166132/plib_dac.o
 .text.DAC_IsReady
                0x00000000       0x14 build/default/production/_ext/60166132/plib_dac.o
 .text          0x00000000        0x0 build/default/production/_ext/1986646378/plib_evsys.o
 .data          0x00000000        0x0 build/default/production/_ext/1986646378/plib_evsys.o
 .bss           0x00000000        0x0 build/default/production/_ext/1986646378/plib_evsys.o
 .text          0x00000000        0x0 build/default/production/_ext/1865468468/plib_nvic.o
 .data          0x00000000        0x0 build/default/production/_ext/1865468468/plib_nvic.o
 .bss           0x00000000        0x0 build/default/production/_ext/1865468468/plib_nvic.o
 .text.NVIC_INT_Enable
                0x00000000        0x8 build/default/production/_ext/1865468468/plib_nvic.o
 .text.NVIC_INT_Disable
                0x00000000       0x12 build/default/production/_ext/1865468468/plib_nvic.o
 .text.NVIC_INT_Restore
                0x00000000       0x12 build/default/production/_ext/1865468468/plib_nvic.o
 .text.NVIC_INT_SourceDisable
                0x00000000       0x40 build/default/production/_ext/1865468468/plib_nvic.o
 .text.NVIC_INT_SourceRestore
                0x00000000       0x20 build/default/production/_ext/1865468468/plib_nvic.o
 .text          0x00000000        0x0 build/default/production/_ext/1593096446/plib_nvmctrl.o
 .data          0x00000000        0x0 build/default/production/_ext/1593096446/plib_nvmctrl.o
 .bss           0x00000000        0x0 build/default/production/_ext/1593096446/plib_nvmctrl.o
 .text.NVMCTRL_CacheInvalidate
                0x00000000       0x14 build/default/production/_ext/1593096446/plib_nvmctrl.o
 .text.NVMCTRL_Read
                0x00000000       0x10 build/default/production/_ext/1593096446/plib_nvmctrl.o
 .text.NVMCTRL_PageWrite
                0x00000000       0x4c build/default/production/_ext/1593096446/plib_nvmctrl.o
 .text.NVMCTRL_RowErase
                0x00000000       0x38 build/default/production/_ext/1593096446/plib_nvmctrl.o
 .text.NVMCTRL_PageBufferWrite
                0x00000000       0x42 build/default/production/_ext/1593096446/plib_nvmctrl.o
 .text.NVMCTRL_PageBufferCommit
                0x00000000       0x1c build/default/production/_ext/1593096446/plib_nvmctrl.o
 .text.NVMCTRL_USER_ROW_PageWrite
                0x00000000       0x1e build/default/production/_ext/1593096446/plib_nvmctrl.o
 .text.NVMCTRL_USER_ROW_RowErase
                0x00000000       0x22 build/default/production/_ext/1593096446/plib_nvmctrl.o
 .text.NVMCTRL_BOCOR_ROW_PageWrite
                0x00000000       0x1e build/default/production/_ext/1593096446/plib_nvmctrl.o
 .text.NVMCTRL_BOCOR_ROW_RowErase
                0x00000000       0x22 build/default/production/_ext/1593096446/plib_nvmctrl.o
 .text.NVMCTRL_ErrorGet
                0x00000000       0x28 build/default/production/_ext/1593096446/plib_nvmctrl.o
 .text.NVMCTRL_IsBusy
                0x00000000       0x16 build/default/production/_ext/1593096446/plib_nvmctrl.o
 .text.NVMCTRL_RegionLock
                0x00000000       0x16 build/default/production/_ext/1593096446/plib_nvmctrl.o
 .text.NVMCTRL_RegionUnlock
                0x00000000       0x16 build/default/production/_ext/1593096446/plib_nvmctrl.o
 .text.NVMCTRL_SecureRegionLock
                0x00000000       0x16 build/default/production/_ext/1593096446/plib_nvmctrl.o
 .text.NVMCTRL_SecureRegionUnlock
                0x00000000       0x16 build/default/production/_ext/1593096446/plib_nvmctrl.o
 .text          0x00000000        0x0 build/default/production/_ext/829342769/plib_pm.o
 .data          0x00000000        0x0 build/default/production/_ext/829342769/plib_pm.o
 .bss           0x00000000        0x0 build/default/production/_ext/829342769/plib_pm.o
 .text.PM_IdleModeEnter
                0x00000000       0x1e build/default/production/_ext/829342769/plib_pm.o
 .text.PM_StandbyModeEnter
                0x00000000       0x1e build/default/production/_ext/829342769/plib_pm.o
 .text.PM_OffModeEnter
                0x00000000       0x20 build/default/production/_ext/829342769/plib_pm.o
 .text.PM_ConfigurePerformanceLevel
                0x00000000       0x50 build/default/production/_ext/829342769/plib_pm.o
 .text          0x00000000        0x0 build/default/production/_ext/1865521619/plib_port.o
 .data          0x00000000        0x0 build/default/production/_ext/1865521619/plib_port.o
 .bss           0x00000000        0x0 build/default/production/_ext/1865521619/plib_port.o
 .text.PORT_GroupRead
                0x00000000        0x4 build/default/production/_ext/1865521619/plib_port.o
 .text.PORT_GroupWrite
                0x00000000        0xc build/default/production/_ext/1865521619/plib_port.o
 .text.PORT_GroupLatchRead
                0x00000000        0x4 build/default/production/_ext/1865521619/plib_port.o
 .text.PORT_GroupSet
                0x00000000        0x4 build/default/production/_ext/1865521619/plib_port.o
 .text.PORT_GroupClear
                0x00000000        0x4 build/default/production/_ext/1865521619/plib_port.o
 .text.PORT_GroupToggle
                0x00000000        0x4 build/default/production/_ext/1865521619/plib_port.o
 .text.PORT_GroupInputEnable
                0x00000000       0x2a build/default/production/_ext/1865521619/plib_port.o
 .text.PORT_GroupOutputEnable
                0x00000000        0x4 build/default/production/_ext/1865521619/plib_port.o
 .text.PORT_PinPeripheralFunctionConfig
                0x00000000       0x4a build/default/production/_ext/1865521619/plib_port.o
 .text.PORT_PinGPIOConfig
                0x00000000       0x20 build/default/production/_ext/1865521619/plib_port.o
 .text          0x00000000        0x0 build/default/production/_ext/829342655/plib_tc0.o
 .data          0x00000000        0x0 build/default/production/_ext/829342655/plib_tc0.o
 .bss           0x00000000        0x0 build/default/production/_ext/829342655/plib_tc0.o
 .text.TC0_TimerStop
                0x00000000       0x20 build/default/production/_ext/829342655/plib_tc0.o
 .text.TC0_TimerFrequencyGet
                0x00000000        0xa build/default/production/_ext/829342655/plib_tc0.o
 .text.TC0_TimerCommandSet
                0x00000000       0x1e build/default/production/_ext/829342655/plib_tc0.o
 .text.TC0_Timer16bitCounterGet
                0x00000000       0x3e build/default/production/_ext/829342655/plib_tc0.o
 .text.TC0_Timer16bitCounterSet
                0x00000000       0x1c build/default/production/_ext/829342655/plib_tc0.o
 .text.TC0_Timer16bitPeriodSet
                0x00000000       0x1c build/default/production/_ext/829342655/plib_tc0.o
 .text.TC0_Timer16bitPeriodGet
                0x00000000        0xe build/default/production/_ext/829342655/plib_tc0.o
 .text          0x00000000        0x0 build/default/production/_ext/163028504/xc32_monitor.o
 .data          0x00000000        0x0 build/default/production/_ext/163028504/xc32_monitor.o
 .bss           0x00000000        0x0 build/default/production/_ext/163028504/xc32_monitor.o
 .text.read     0x00000000        0x6 build/default/production/_ext/163028504/xc32_monitor.o
 .text.write    0x00000000        0x6 build/default/production/_ext/163028504/xc32_monitor.o
 .debug_info    0x00000000       0xf5 build/default/production/_ext/163028504/xc32_monitor.o
 .debug_abbrev  0x00000000       0xb2 build/default/production/_ext/163028504/xc32_monitor.o
 .debug_loc     0x00000000       0x56 build/default/production/_ext/163028504/xc32_monitor.o
 .debug_aranges
                0x00000000       0x28 build/default/production/_ext/163028504/xc32_monitor.o
 .debug_ranges  0x00000000       0x18 build/default/production/_ext/163028504/xc32_monitor.o
 .debug_line    0x00000000       0xd9 build/default/production/_ext/163028504/xc32_monitor.o
 .debug_str     0x00000000      0x2a7 build/default/production/_ext/163028504/xc32_monitor.o
 .comment       0x00000000       0x36 build/default/production/_ext/163028504/xc32_monitor.o
 .debug_frame   0x00000000       0x30 build/default/production/_ext/163028504/xc32_monitor.o
 .ARM.attributes
                0x00000000       0x30 build/default/production/_ext/163028504/xc32_monitor.o
 .text          0x00000000        0x0 build/default/production/_ext/1171490990/initialization.o
 .data          0x00000000        0x0 build/default/production/_ext/1171490990/initialization.o
 .bss           0x00000000        0x0 build/default/production/_ext/1171490990/initialization.o
 .text          0x00000000        0x0 build/default/production/_ext/1171490990/interrupts.o
 .data          0x00000000        0x0 build/default/production/_ext/1171490990/interrupts.o
 .bss           0x00000000        0x0 build/default/production/_ext/1171490990/interrupts.o
 .text          0x00000000        0x0 build/default/production/_ext/1171490990/exceptions.o
 .data          0x00000000        0x0 build/default/production/_ext/1171490990/exceptions.o
 .bss           0x00000000        0x0 build/default/production/_ext/1171490990/exceptions.o
 .text          0x00000000        0x0 build/default/production/_ext/1171490990/startup_xc32.o
 .data          0x00000000        0x0 build/default/production/_ext/1171490990/startup_xc32.o
 .bss           0x00000000        0x0 build/default/production/_ext/1171490990/startup_xc32.o
 .text          0x00000000        0x0 build/default/production/_ext/1171490990/libc_syscalls.o
 .data          0x00000000        0x0 build/default/production/_ext/1171490990/libc_syscalls.o
 .bss           0x00000000        0x0 build/default/production/_ext/1171490990/libc_syscalls.o
 .text._exit    0x00000000        0x2 build/default/production/_ext/1171490990/libc_syscalls.o
 .debug_info    0x00000000       0xaa build/default/production/_ext/1171490990/libc_syscalls.o
 .debug_abbrev  0x00000000       0x5d build/default/production/_ext/1171490990/libc_syscalls.o
 .debug_loc     0x00000000       0x15 build/default/production/_ext/1171490990/libc_syscalls.o
 .debug_aranges
                0x00000000       0x20 build/default/production/_ext/1171490990/libc_syscalls.o
 .debug_ranges  0x00000000       0x10 build/default/production/_ext/1171490990/libc_syscalls.o
 .debug_line    0x00000000       0x5e build/default/production/_ext/1171490990/libc_syscalls.o
 .debug_str     0x00000000      0x2db build/default/production/_ext/1171490990/libc_syscalls.o
 .comment       0x00000000       0x36 build/default/production/_ext/1171490990/libc_syscalls.o
 .debug_frame   0x00000000       0x20 build/default/production/_ext/1171490990/libc_syscalls.o
 .ARM.attributes
                0x00000000       0x30 build/default/production/_ext/1171490990/libc_syscalls.o
 .text          0x00000000        0x0 build/default/production/_ext/1360937237/main.o
 .data          0x00000000        0x0 build/default/production/_ext/1360937237/main.o
 .bss           0x00000000        0x0 build/default/production/_ext/1360937237/main.o
 .rodata.audio_5khz
                0x00000000        0x4 build/default/production/_ext/1360937237/main.o
 .text          0x00000000        0x0 build/default/production/_ext/471191132/alert_audio.o
 .data          0x00000000        0x0 build/default/production/_ext/471191132/alert_audio.o
 .bss           0x00000000        0x0 build/default/production/_ext/471191132/alert_audio.o
 .text          0x00000000        0x0 build/default/production/_ext/471191132/Marathi_audio.o
 .data          0x00000000        0x0 build/default/production/_ext/471191132/Marathi_audio.o
 .bss           0x00000000        0x0 build/default/production/_ext/471191132/Marathi_audio.o
 .text          0x00000000        0x0 build/default/production/_ext/60167341/plib_eic.o
 .data          0x00000000        0x0 build/default/production/_ext/60167341/plib_eic.o
 .bss           0x00000000        0x0 build/default/production/_ext/60167341/plib_eic.o
 .text.EIC_InterruptEnable
                0x00000000       0x10 build/default/production/_ext/60167341/plib_eic.o
 .text.EIC_InterruptDisable
                0x00000000       0x10 build/default/production/_ext/60167341/plib_eic.o
 .text          0x00000000        0x0 C:/Program Files/Microchip/xc32/v5.00/bin/bin/../../lib/gcc/pic32c/13.2.1/../../../../pic32c/lib/thumb/v8-m.base/nofp\libpic32c.a(data_init.o)
 .data          0x00000000        0x0 C:/Program Files/Microchip/xc32/v5.00/bin/bin/../../lib/gcc/pic32c/13.2.1/../../../../pic32c/lib/thumb/v8-m.base/nofp\libpic32c.a(data_init.o)
 .xc_stack_usage
                0x00000000       0x68 C:/Program Files/Microchip/xc32/v5.00/bin/bin/../../lib/gcc/pic32c/13.2.1/../../../../pic32c/lib/thumb/v8-m.base/nofp\libpic32c.a(data_init.o)
 .xc_stack_usage.hdr
                0x00000000        0xe C:/Program Files/Microchip/xc32/v5.00/bin/bin/../../lib/gcc/pic32c/13.2.1/../../../../pic32c/lib/thumb/v8-m.base/nofp\libpic32c.a(data_init.o)
 .text          0x00000000        0x0 C:/Program Files/Microchip/xc32/v5.00/bin/bin/../../lib/gcc/pic32c/13.2.1/../../../../pic32c/lib/thumb/v8-m.base/nofp\libc-size-musl.a(memcpy.o)
 .data          0x00000000        0x0 C:/Program Files/Microchip/xc32/v5.00/bin/bin/../../lib/gcc/pic32c/13.2.1/../../../../pic32c/lib/thumb/v8-m.base/nofp\libc-size-musl.a(memcpy.o)
 .bss           0x00000000        0x0 C:/Program Files/Microchip/xc32/v5.00/bin/bin/../../lib/gcc/pic32c/13.2.1/../../../../pic32c/lib/thumb/v8-m.base/nofp\libc-size-musl.a(memcpy.o)
 .xc_stack_usage
                0x00000000       0x14 C:/Program Files/Microchip/xc32/v5.00/bin/bin/../../lib/gcc/pic32c/13.2.1/../../../../pic32c/lib/thumb/v8-m.base/nofp\libc-size-musl.a(memcpy.o)
 .text.memcpy   0x00000000       0x14 C:/Program Files/Microchip/xc32/v5.00/bin/bin/../../lib/gcc/pic32c/13.2.1/../../../../pic32c/lib/thumb/v8-m.base/nofp\libc-size-musl.a(memcpy.o)
 .xc_stack_usage.hdr
                0x00000000        0xe C:/Program Files/Microchip/xc32/v5.00/bin/bin/../../lib/gcc/pic32c/13.2.1/../../../../pic32c/lib/thumb/v8-m.base/nofp\libc-size-musl.a(memcpy.o)
 .debug_info    0x00000000       0xed C:/Program Files/Microchip/xc32/v5.00/bin/bin/../../lib/gcc/pic32c/13.2.1/../../../../pic32c/lib/thumb/v8-m.base/nofp\libc-size-musl.a(memcpy.o)
 .debug_abbrev  0x00000000       0xbb C:/Program Files/Microchip/xc32/v5.00/bin/bin/../../lib/gcc/pic32c/13.2.1/../../../../pic32c/lib/thumb/v8-m.base/nofp\libc-size-musl.a(memcpy.o)
 .debug_loc     0x00000000      0x12d C:/Program Files/Microchip/xc32/v5.00/bin/bin/../../lib/gcc/pic32c/13.2.1/../../../../pic32c/lib/thumb/v8-m.base/nofp\libc-size-musl.a(memcpy.o)
 .debug_aranges
                0x00000000       0x20 C:/Program Files/Microchip/xc32/v5.00/bin/bin/../../lib/gcc/pic32c/13.2.1/../../../../pic32c/lib/thumb/v8-m.base/nofp\libc-size-musl.a(memcpy.o)
 .debug_ranges  0x00000000       0x10 C:/Program Files/Microchip/xc32/v5.00/bin/bin/../../lib/gcc/pic32c/13.2.1/../../../../pic32c/lib/thumb/v8-m.base/nofp\libc-size-musl.a(memcpy.o)
 .debug_line    0x00000000      0x16c C:/Program Files/Microchip/xc32/v5.00/bin/bin/../../lib/gcc/pic32c/13.2.1/../../../../pic32c/lib/thumb/v8-m.base/nofp\libc-size-musl.a(memcpy.o)
 .debug_str     0x00000000      0x241 C:/Program Files/Microchip/xc32/v5.00/bin/bin/../../lib/gcc/pic32c/13.2.1/../../../../pic32c/lib/thumb/v8-m.base/nofp\libc-size-musl.a(memcpy.o)
 .comment       0x00000000       0x36 C:/Program Files/Microchip/xc32/v5.00/bin/bin/../../lib/gcc/pic32c/13.2.1/../../../../pic32c/lib/thumb/v8-m.base/nofp\libc-size-musl.a(memcpy.o)
 .note.GNU-stack
                0x00000000        0x0 C:/Program Files/Microchip/xc32/v5.00/bin/bin/../../lib/gcc/pic32c/13.2.1/../../../../pic32c/lib/thumb/v8-m.base/nofp\libc-size-musl.a(memcpy.o)
 .debug_frame   0x00000000       0x28 C:/Program Files/Microchip/xc32/v5.00/bin/bin/../../lib/gcc/pic32c/13.2.1/../../../../pic32c/lib/thumb/v8-m.base/nofp\libc-size-musl.a(memcpy.o)
 .ARM.attributes
                0x00000000       0x32 C:/Program Files/Microchip/xc32/v5.00/bin/bin/../../lib/gcc/pic32c/13.2.1/../../../../pic32c/lib/thumb/v8-m.base/nofp\libc-size-musl.a(memcpy.o)
 .text          0x00000000        0x0 C:/Program Files/Microchip/xc32/v5.00/bin/bin/../../lib/gcc/pic32c/13.2.1/../../../../pic32c/lib/thumb/v8-m.base/nofp\libc-musl.a(__libc_start_main.o)
 .data          0x00000000        0x0 C:/Program Files/Microchip/xc32/v5.00/bin/bin/../../lib/gcc/pic32c/13.2.1/../../../../pic32c/lib/thumb/v8-m.base/nofp\libc-musl.a(__libc_start_main.o)
 .bss           0x00000000        0x0 C:/Program Files/Microchip/xc32/v5.00/bin/bin/../../lib/gcc/pic32c/13.2.1/../../../../pic32c/lib/thumb/v8-m.base/nofp\libc-musl.a(__libc_start_main.o)
 .xc_stack_usage
                0x00000000       0x34 C:/Program Files/Microchip/xc32/v5.00/bin/bin/../../lib/gcc/pic32c/13.2.1/../../../../pic32c/lib/thumb/v8-m.base/nofp\libc-musl.a(__libc_start_main.o)
 .xc_stack_usage.hdr
                0x00000000        0xe C:/Program Files/Microchip/xc32/v5.00/bin/bin/../../lib/gcc/pic32c/13.2.1/../../../../pic32c/lib/thumb/v8-m.base/nofp\libc-musl.a(__libc_start_main.o)
 .text          0x00000000        0x0 C:/Program Files/Microchip/xc32/v5.00/bin/bin/../../lib/gcc/pic32c/13.2.1/../../../../pic32c/lib/thumb/v8-m.base/nofp\libc-musl.a(libc.o)
 .data          0x00000000        0x0 C:/Program Files/Microchip/xc32/v5.00/bin/bin/../../lib/gcc/pic32c/13.2.1/../../../../pic32c/lib/thumb/v8-m.base/nofp\libc-musl.a(libc.o)
 .xc_stack_usage.hdr
                0x00000000        0xe C:/Program Files/Microchip/xc32/v5.00/bin/bin/../../lib/gcc/pic32c/13.2.1/../../../../pic32c/lib/thumb/v8-m.base/nofp\libc-musl.a(libc.o)
 .text          0x00000000        0x0 C:/Program Files/Microchip/xc32/v5.00/bin/bin/../../lib/gcc/pic32c/13.2.1/../../../../pic32c/lib/thumb/v8-m.base/nofp\libc-musl.a(__environ.o)
 .data          0x00000000        0x0 C:/Program Files/Microchip/xc32/v5.00/bin/bin/../../lib/gcc/pic32c/13.2.1/../../../../pic32c/lib/thumb/v8-m.base/nofp\libc-musl.a(__environ.o)
 .xc_stack_usage.hdr
                0x00000000        0xe C:/Program Files/Microchip/xc32/v5.00/bin/bin/../../lib/gcc/pic32c/13.2.1/../../../../pic32c/lib/thumb/v8-m.base/nofp\libc-musl.a(__environ.o)
 .text          0x00000000        0x0 C:/Program Files/Microchip/xc32/v5.00/bin/bin/../../lib/gcc/pic32c/13.2.1/thumb/v8-m.base/nofp/crtend.o
 .data          0x00000000        0x0 C:/Program Files/Microchip/xc32/v5.00/bin/bin/../../lib/gcc/pic32c/13.2.1/thumb/v8-m.base/nofp/crtend.o
 .bss           0x00000000        0x0 C:/Program Files/Microchip/xc32/v5.00/bin/bin/../../lib/gcc/pic32c/13.2.1/thumb/v8-m.base/nofp/crtend.o
 .rodata        0x00000000       0x24 C:/Program Files/Microchip/xc32/v5.00/bin/bin/../../lib/gcc/pic32c/13.2.1/thumb/v8-m.base/nofp/crtend.o
 .eh_frame      0x00000000        0x4 C:/Program Files/Microchip/xc32/v5.00/bin/bin/../../lib/gcc/pic32c/13.2.1/thumb/v8-m.base/nofp/crtend.o
 .xc_stack_usage.hdr
                0x00000000        0xe C:/Program Files/Microchip/xc32/v5.00/bin/bin/../../lib/gcc/pic32c/13.2.1/thumb/v8-m.base/nofp/crtend.o
 .comment       0x00000000       0x36 C:/Program Files/Microchip/xc32/v5.00/bin/bin/../../lib/gcc/pic32c/13.2.1/thumb/v8-m.base/nofp/crtend.o
 .ARM.attributes
                0x00000000       0x30 C:/Program Files/Microchip/xc32/v5.00/bin/bin/../../lib/gcc/pic32c/13.2.1/thumb/v8-m.base/nofp/crtend.o
 .text          0x00000000        0x0 C:/Program Files/Microchip/xc32/v5.00/bin/bin/../../lib/gcc/pic32c/13.2.1/thumb/v8-m.base/nofp/crtn.o
 .data          0x00000000        0x0 C:/Program Files/Microchip/xc32/v5.00/bin/bin/../../lib/gcc/pic32c/13.2.1/thumb/v8-m.base/nofp/crtn.o
 .bss           0x00000000        0x0 C:/Program Files/Microchip/xc32/v5.00/bin/bin/../../lib/gcc/pic32c/13.2.1/thumb/v8-m.base/nofp/crtn.o
 .xc_stack_usage.hdr
                0x00000000        0xe C:/Program Files/Microchip/xc32/v5.00/bin/bin/../../lib/gcc/pic32c/13.2.1/thumb/v8-m.base/nofp/crtn.o
 .text          0x00000000        0x0 C:/Program Files/Microchip/xc32/v5.00/bin/bin/../../lib/gcc/pic32c/13.2.1/../../../../pic32c/lib/thumb/v8-m.base/nofp\libpic32c.a(pic32_data_init_clear.o)
 .data          0x00000000        0x0 C:/Program Files/Microchip/xc32/v5.00/bin/bin/../../lib/gcc/pic32c/13.2.1/../../../../pic32c/lib/thumb/v8-m.base/nofp\libpic32c.a(pic32_data_init_clear.o)
 .bss           0x00000000        0x0 C:/Program Files/Microchip/xc32/v5.00/bin/bin/../../lib/gcc/pic32c/13.2.1/../../../../pic32c/lib/thumb/v8-m.base/nofp\libpic32c.a(pic32_data_init_clear.o)
 .xc_stack_usage
                0x00000000       0x1b C:/Program Files/Microchip/xc32/v5.00/bin/bin/../../lib/gcc/pic32c/13.2.1/../../../../pic32c/lib/thumb/v8-m.base/nofp\libpic32c.a(pic32_data_init_clear.o)
 .xc_stack_usage.hdr
                0x00000000        0xe C:/Program Files/Microchip/xc32/v5.00/bin/bin/../../lib/gcc/pic32c/13.2.1/../../../../pic32c/lib/thumb/v8-m.base/nofp\libpic32c.a(pic32_data_init_clear.o)
 .text          0x00000000        0x0 C:/Program Files/Microchip/xc32/v5.00/bin/bin/../../lib/gcc/pic32c/13.2.1/../../../../pic32c/lib/thumb/v8-m.base/nofp\libpic32c.a(pic32_data_init_copy.o)
 .data          0x00000000        0x0 C:/Program Files/Microchip/xc32/v5.00/bin/bin/../../lib/gcc/pic32c/13.2.1/../../../../pic32c/lib/thumb/v8-m.base/nofp\libpic32c.a(pic32_data_init_copy.o)
 .bss           0x00000000        0x0 C:/Program Files/Microchip/xc32/v5.00/bin/bin/../../lib/gcc/pic32c/13.2.1/../../../../pic32c/lib/thumb/v8-m.base/nofp\libpic32c.a(pic32_data_init_copy.o)
 .xc_stack_usage
                0x00000000       0x1a C:/Program Files/Microchip/xc32/v5.00/bin/bin/../../lib/gcc/pic32c/13.2.1/../../../../pic32c/lib/thumb/v8-m.base/nofp\libpic32c.a(pic32_data_init_copy.o)
 .xc_stack_usage.hdr
                0x00000000        0xe C:/Program Files/Microchip/xc32/v5.00/bin/bin/../../lib/gcc/pic32c/13.2.1/../../../../pic32c/lib/thumb/v8-m.base/nofp\libpic32c.a(pic32_data_init_copy.o)

Memory Configuration

Name             Origin             Length             Attributes
rom              0x00000000         0x00080000         xrl
ram              0x20000000         0x00010000         xw!r
config_00804000  0x00804000         0x00000004
config_00804004  0x00804004         0x00000004
*default*        0x00000000         0xffffffff

Linker script and memory map

LOAD C:/Program Files/Microchip/xc32/v5.00/bin/bin/../../lib/gcc/pic32c/13.2.1/thumb/v8-m.base/nofp/crti.o
LOAD C:/Program Files/Microchip/xc32/v5.00/bin/bin/../../lib/gcc/pic32c/13.2.1/thumb/v8-m.base/nofp/crtbegin.o
LOAD build/default/production/_ext/1984496892/plib_clock.o
LOAD build/default/production/_ext/60166132/plib_dac.o
LOAD build/default/production/_ext/1986646378/plib_evsys.o
LOAD build/default/production/_ext/1865468468/plib_nvic.o
LOAD build/default/production/_ext/1593096446/plib_nvmctrl.o
LOAD build/default/production/_ext/829342769/plib_pm.o
LOAD build/default/production/_ext/1865521619/plib_port.o
LOAD build/default/production/_ext/829342655/plib_tc0.o
LOAD build/default/production/_ext/163028504/xc32_monitor.o
LOAD build/default/production/_ext/1171490990/initialization.o
LOAD build/default/production/_ext/1171490990/interrupts.o
LOAD build/default/production/_ext/1171490990/exceptions.o
LOAD build/default/production/_ext/1171490990/startup_xc32.o
LOAD build/default/production/_ext/1171490990/libc_syscalls.o
LOAD build/default/production/_ext/1360937237/main.o
LOAD build/default/production/_ext/471191132/alert_audio.o
LOAD build/default/production/_ext/471191132/Marathi_audio.o
LOAD build/default/production/_ext/60167341/plib_eic.o
                0x00000001                        __MPLAB_BUILD = 0x1
                0x00080000                        __rom_end = (ORIGIN (rom) + LENGTH (rom))
                0x20010000                        __ram_end = (ORIGIN (ram) + LENGTH (ram))

.config_00804000
                0x00804000        0x4
 *(.config_00804000)
 .config_00804000
                0x00804000        0x4 build/default/production/_ext/1171490990/initialization.o
                0x00804000                __config_00804000

.config_00804004
                0x00804004        0x4
 *(.config_00804004)
 .config_00804004
                0x00804004        0x4 build/default/production/_ext/1171490990/initialization.o
                0x00804004                __config_00804004

.vectors        0x00000000      0x15c
                0x00000000                        . = ALIGN (0x4)
                0x00000000                        _sfixed = .
 *(.vectors .vectors.* .vectors_default .vectors_default.*)
 .vectors       0x00000000      0x15c build/default/production/_ext/1171490990/interrupts.o
                0x00000000                exception_table
 *(.isr_vector)
 *(.reset*)
 *(.after_vectors)

.text           0x0000015c       0x20
                0x0000015c                        . = ALIGN (0x4)
 *(.glue_7t)
 .glue_7t       0x0000015c        0x0 linker stubs
 *(.glue_7)
 .glue_7        0x0000015c        0x0 linker stubs
 *(.gnu.linkonce.r.*)
 *(.ARM.extab* .gnu.linkonce.armextab.*)
                0x0000015c                        . = ALIGN (0x4)
 *(.init)
 .init          0x0000015c        0x4 C:/Program Files/Microchip/xc32/v5.00/bin/bin/../../lib/gcc/pic32c/13.2.1/thumb/v8-m.base/nofp/crti.o
                0x0000015c                _init
 .init          0x00000160        0x8 C:/Program Files/Microchip/xc32/v5.00/bin/bin/../../lib/gcc/pic32c/13.2.1/thumb/v8-m.base/nofp/crtn.o
                0x00000168                        . = ALIGN (0x4)
                0x00000168                        __preinit_array_start = .
 *(.preinit_array)
                0x00000168                        __preinit_array_end = .
                0x00000168                        . = ALIGN (0x4)
                0x00000168                        __init_array_start = .
 *(SORT_BY_NAME(.init_array.*))
 *(.init_array)
 .init_array    0x00000168        0x4 C:/Program Files/Microchip/xc32/v5.00/bin/bin/../../lib/gcc/pic32c/13.2.1/thumb/v8-m.base/nofp/crtbegin.o
                0x0000016c                        __init_array_end = .
                0x0000016c                        . = ALIGN (0x4)
 *crtbegin.o(.ctors)
 *(EXCLUDE_FILE(*crtend.o) .ctors)
 *(SORT_BY_NAME(.ctors.*))
 *crtend.o(.ctors)
                0x0000016c                        . = ALIGN (0x4)
 *(.fini)
 .fini          0x0000016c        0x4 C:/Program Files/Microchip/xc32/v5.00/bin/bin/../../lib/gcc/pic32c/13.2.1/thumb/v8-m.base/nofp/crti.o
                0x0000016c                _fini
 .fini          0x00000170        0x8 C:/Program Files/Microchip/xc32/v5.00/bin/bin/../../lib/gcc/pic32c/13.2.1/thumb/v8-m.base/nofp/crtn.o
                0x00000178                        . = ALIGN (0x4)
                0x00000178                        __fini_array_start = .
 *(.fini_array)
 .fini_array    0x00000178        0x4 C:/Program Files/Microchip/xc32/v5.00/bin/bin/../../lib/gcc/pic32c/13.2.1/thumb/v8-m.base/nofp/crtbegin.o
 *(SORT_BY_NAME(.fini_array.*))
                0x0000017c                        __fini_array_end = .
 *crtbegin.o(.dtors)
 *(EXCLUDE_FILE(*crtend.o) .dtors)
 *(SORT_BY_NAME(.dtors.*))
 *crtend.o(.dtors)
                0x0000017c                        . = ALIGN (0x4)
                0x0000017c                        _efixed = .
                [!provide]                        PROVIDE (__exidx_start = .)

.ARM.exidx
 *(.ARM.exidx* .gnu.linkonce.armexidx.*)
                [!provide]                        PROVIDE (__exidx_end = .)
                0x0000017c                        . = ALIGN (0x4)
                0x0000017c                        _etext = .

.bss            0x20000000        0x0
                0x20000000                        . = ALIGN (0x4)
                0x20000000                        __bss_start__ = .
                0x20000000                        _sbss = .
                0x20000000                        _szero = .
 *(COMMON)
                0x20000000                        . = ALIGN (0x4)
                0x20000000                        __bss_end__ = .
                0x20000000                        _ebss = .
                0x20000000                        _ezero = .
                0x20000000                        . = ALIGN (0x4)
                0x20000000                        _end = .
                0x2000ffff                        _ram_end_ = ((ORIGIN (ram) + LENGTH (ram)) - 0x1)
                0x00000200                        _min_heap_size = 0x200
START GROUP
LOAD C:/Program Files/Microchip/xc32/v5.00/bin/bin/../../lib/gcc/pic32c/13.2.1/../../../../pic32c/lib/thumb/v8-m.base/nofp\libpic32c.a
LOAD C:/Program Files/Microchip/xc32/v5.00/bin/bin/../../lib/gcc/pic32c/13.2.1/../../../../pic32c/lib/thumb/v8-m.base/nofp\libc-size-musl.a
LOAD C:/Program Files/Microchip/xc32/v5.00/bin/bin/../../lib/gcc/pic32c/13.2.1/../../../../pic32c/lib/thumb/v8-m.base/nofp\liblmalloc-musl.a
LOAD C:/Program Files/Microchip/xc32/v5.00/bin/bin/../../lib/gcc/pic32c/13.2.1/../../../../pic32c/lib/thumb/v8-m.base/nofp\libc-musl.a
LOAD C:/Program Files/Microchip/xc32/v5.00/bin/bin/../../lib/gcc/pic32c/13.2.1/../../../../pic32c/lib/thumb/v8-m.base/nofp\libm-fast-emfloat.a
LOAD C:/Program Files/Microchip/xc32/v5.00/bin/bin/../../lib/gcc/pic32c/13.2.1/../../../../pic32c/lib/thumb/v8-m.base/nofp\libm-musl.a
END GROUP
LOAD C:/Program Files/Microchip/xc32/v5.00/bin/bin/../../lib/gcc/pic32c/13.2.1/thumb/v8-m.base/nofp\libgcc.a
LOAD C:/Program Files/Microchip/xc32/v5.00/bin/bin/../../lib/gcc/pic32c/13.2.1/thumb/v8-m.base/nofp/crtend.o
LOAD C:/Program Files/Microchip/xc32/v5.00/bin/bin/../../lib/gcc/pic32c/13.2.1/thumb/v8-m.base/nofp/crtn.o
OUTPUT(dist/default/production/PIC32CM_SmokeDetector_Audio.X.production.elf elf32-littlearm)
LOAD linker stubs
LOAD data_init

.note           0x00000000      0x408
 .note          0x00000000       0x18 C:/Program Files/Microchip/xc32/v5.00/bin/bin/../../lib/gcc/pic32c/13.2.1/thumb/v8-m.base/nofp/crti.o
 .note          0x00000018       0x18 C:/Program Files/Microchip/xc32/v5.00/bin/bin/../../lib/gcc/pic32c/13.2.1/thumb/v8-m.base/nofp/crtbegin.o
 .note          0x00000030       0x18 build/default/production/_ext/1984496892/plib_clock.o
 .note          0x00000048       0x18 build/default/production/_ext/60166132/plib_dac.o
 .note          0x00000060       0x18 build/default/production/_ext/1986646378/plib_evsys.o
 .note          0x00000078       0x18 build/default/production/_ext/1865468468/plib_nvic.o
 .note          0x00000090       0x18 build/default/production/_ext/1593096446/plib_nvmctrl.o
 .note          0x000000a8       0x18 build/default/production/_ext/829342769/plib_pm.o
 .note          0x000000c0       0x18 build/default/production/_ext/1865521619/plib_port.o
 .note          0x000000d8       0x18 build/default/production/_ext/829342655/plib_tc0.o
 .note          0x000000f0       0x18 build/default/production/_ext/163028504/xc32_monitor.o
 .note          0x00000108      0x168 build/default/production/_ext/1171490990/initialization.o
 .note          0x00000270       0x18 build/default/production/_ext/1171490990/interrupts.o
 .note          0x00000288       0x18 build/default/production/_ext/1171490990/exceptions.o
 .note          0x000002a0       0x18 build/default/production/_ext/1171490990/startup_xc32.o
 .note          0x000002b8       0x18 build/default/production/_ext/1171490990/libc_syscalls.o
 .note          0x000002d0       0x18 build/default/production/_ext/1360937237/main.o
 .note          0x000002e8       0x18 build/default/production/_ext/471191132/alert_audio.o
 .note          0x00000300       0x18 build/default/production/_ext/471191132/Marathi_audio.o
 .note          0x00000318       0x18 build/default/production/_ext/60167341/plib_eic.o
 .note          0x00000330       0x18 C:/Program Files/Microchip/xc32/v5.00/bin/bin/../../lib/gcc/pic32c/13.2.1/../../../../pic32c/lib/thumb/v8-m.base/nofp\libpic32c.a(data_init.o)
 .note          0x00000348       0x18 C:/Program Files/Microchip/xc32/v5.00/bin/bin/../../lib/gcc/pic32c/13.2.1/../../../../pic32c/lib/thumb/v8-m.base/nofp\libc-size-musl.a(memcpy.o)
 .note          0x00000360       0x18 C:/Program Files/Microchip/xc32/v5.00/bin/bin/../../lib/gcc/pic32c/13.2.1/../../../../pic32c/lib/thumb/v8-m.base/nofp\libc-musl.a(__libc_start_main.o)
 .note          0x00000378       0x18 C:/Program Files/Microchip/xc32/v5.00/bin/bin/../../lib/gcc/pic32c/13.2.1/../../../../pic32c/lib/thumb/v8-m.base/nofp\libc-musl.a(libc.o)
 .note          0x00000390       0x18 C:/Program Files/Microchip/xc32/v5.00/bin/bin/../../lib/gcc/pic32c/13.2.1/../../../../pic32c/lib/thumb/v8-m.base/nofp\libc-musl.a(__environ.o)
 .note          0x000003a8       0x18 C:/Program Files/Microchip/xc32/v5.00/bin/bin/../../lib/gcc/pic32c/13.2.1/thumb/v8-m.base/nofp/crtend.o
 .note          0x000003c0       0x18 C:/Program Files/Microchip/xc32/v5.00/bin/bin/../../lib/gcc/pic32c/13.2.1/thumb/v8-m.base/nofp/crtn.o
 .note          0x000003d8       0x18 C:/Program Files/Microchip/xc32/v5.00/bin/bin/../../lib/gcc/pic32c/13.2.1/../../../../pic32c/lib/thumb/v8-m.base/nofp\libpic32c.a(pic32_data_init_clear.o)
 .note          0x000003f0       0x18 C:/Program Files/Microchip/xc32/v5.00/bin/bin/../../lib/gcc/pic32c/13.2.1/../../../../pic32c/lib/thumb/v8-m.base/nofp\libpic32c.a(pic32_data_init_copy.o)

.ARM.attributes
                0x00000000       0x30
 .ARM.attributes
                0x00000000       0x22 C:/Program Files/Microchip/xc32/v5.00/bin/bin/../../lib/gcc/pic32c/13.2.1/thumb/v8-m.base/nofp/crti.o
 .ARM.attributes
                0x00000022       0x30 C:/Program Files/Microchip/xc32/v5.00/bin/bin/../../lib/gcc/pic32c/13.2.1/thumb/v8-m.base/nofp/crtbegin.o
 .ARM.attributes
                0x00000052       0x30 build/default/production/_ext/1984496892/plib_clock.o
 .ARM.attributes
                0x00000082       0x30 build/default/production/_ext/60166132/plib_dac.o
 .ARM.attributes
                0x000000b2       0x30 build/default/production/_ext/1986646378/plib_evsys.o
 .ARM.attributes
                0x000000e2       0x30 build/default/production/_ext/1865468468/plib_nvic.o
 .ARM.attributes
                0x00000112       0x30 build/default/production/_ext/1593096446/plib_nvmctrl.o
 .ARM.attributes
                0x00000142       0x30 build/default/production/_ext/829342769/plib_pm.o
 .ARM.attributes
                0x00000172       0x30 build/default/production/_ext/1865521619/plib_port.o
 .ARM.attributes
                0x000001a2       0x30 build/default/production/_ext/829342655/plib_tc0.o
 .ARM.attributes
                0x000001d2       0x30 build/default/production/_ext/1171490990/initialization.o
 .ARM.attributes
                0x00000202       0x30 build/default/production/_ext/1171490990/interrupts.o
 .ARM.attributes
                0x00000232       0x30 build/default/production/_ext/1171490990/exceptions.o
 .ARM.attributes
                0x00000262       0x30 build/default/production/_ext/1171490990/startup_xc32.o
 .ARM.attributes
                0x00000292       0x30 build/default/production/_ext/1360937237/main.o
 .ARM.attributes
                0x000002c2       0x30 build/default/production/_ext/471191132/alert_audio.o
 .ARM.attributes
                0x000002f2       0x30 build/default/production/_ext/471191132/Marathi_audio.o
 .ARM.attributes
                0x00000322       0x30 build/default/production/_ext/60167341/plib_eic.o
 .ARM.attributes
                0x00000352       0x30 C:/Program Files/Microchip/xc32/v5.00/bin/bin/../../lib/gcc/pic32c/13.2.1/../../../../pic32c/lib/thumb/v8-m.base/nofp\libpic32c.a(data_init.o)
 .ARM.attributes
                0x00000382       0x32 C:/Program Files/Microchip/xc32/v5.00/bin/bin/../../lib/gcc/pic32c/13.2.1/../../../../pic32c/lib/thumb/v8-m.base/nofp\libc-musl.a(__libc_start_main.o)
 .ARM.attributes
                0x000003b4       0x32 C:/Program Files/Microchip/xc32/v5.00/bin/bin/../../lib/gcc/pic32c/13.2.1/../../../../pic32c/lib/thumb/v8-m.base/nofp\libc-musl.a(libc.o)
 .ARM.attributes
                0x000003e6       0x32 C:/Program Files/Microchip/xc32/v5.00/bin/bin/../../lib/gcc/pic32c/13.2.1/../../../../pic32c/lib/thumb/v8-m.base/nofp\libc-musl.a(__environ.o)
 .ARM.attributes
                0x00000418       0x22 C:/Program Files/Microchip/xc32/v5.00/bin/bin/../../lib/gcc/pic32c/13.2.1/thumb/v8-m.base/nofp/crtn.o
 .ARM.attributes
                0x0000043a       0x30 C:/Program Files/Microchip/xc32/v5.00/bin/bin/../../lib/gcc/pic32c/13.2.1/../../../../pic32c/lib/thumb/v8-m.base/nofp\libpic32c.a(pic32_data_init_clear.o)
 .ARM.attributes
                0x0000046a       0x30 C:/Program Files/Microchip/xc32/v5.00/bin/bin/../../lib/gcc/pic32c/13.2.1/../../../../pic32c/lib/thumb/v8-m.base/nofp\libpic32c.a(pic32_data_init_copy.o)

.comment        0x00000000       0x35
 .comment       0x00000000       0x35 C:/Program Files/Microchip/xc32/v5.00/bin/bin/../../lib/gcc/pic32c/13.2.1/thumb/v8-m.base/nofp/crtbegin.o
                                 0x36 (size before relaxing)
 .comment       0x00000035       0x36 build/default/production/_ext/1984496892/plib_clock.o
 .comment       0x00000035       0x36 build/default/production/_ext/60166132/plib_dac.o
 .comment       0x00000035       0x36 build/default/production/_ext/1986646378/plib_evsys.o
 .comment       0x00000035       0x36 build/default/production/_ext/1865468468/plib_nvic.o
 .comment       0x00000035       0x36 build/default/production/_ext/1593096446/plib_nvmctrl.o
 .comment       0x00000035       0x36 build/default/production/_ext/829342769/plib_pm.o
 .comment       0x00000035       0x36 build/default/production/_ext/1865521619/plib_port.o
 .comment       0x00000035       0x36 build/default/production/_ext/829342655/plib_tc0.o
 .comment       0x00000035       0x36 build/default/production/_ext/1171490990/initialization.o
 .comment       0x00000035       0x36 build/default/production/_ext/1171490990/interrupts.o
 .comment       0x00000035       0x36 build/default/production/_ext/1171490990/exceptions.o
 .comment       0x00000035       0x36 build/default/production/_ext/1171490990/startup_xc32.o
 .comment       0x00000035       0x36 build/default/production/_ext/1360937237/main.o
 .comment       0x00000035       0x36 build/default/production/_ext/471191132/alert_audio.o
 .comment       0x00000035       0x36 build/default/production/_ext/471191132/Marathi_audio.o
 .comment       0x00000035       0x36 build/default/production/_ext/60167341/plib_eic.o
 .comment       0x00000035       0x36 C:/Program Files/Microchip/xc32/v5.00/bin/bin/../../lib/gcc/pic32c/13.2.1/../../../../pic32c/lib/thumb/v8-m.base/nofp\libpic32c.a(data_init.o)
 .comment       0x00000035       0x36 C:/Program Files/Microchip/xc32/v5.00/bin/bin/../../lib/gcc/pic32c/13.2.1/../../../../pic32c/lib/thumb/v8-m.base/nofp\libc-musl.a(__libc_start_main.o)
 .comment       0x00000035       0x36 C:/Program Files/Microchip/xc32/v5.00/bin/bin/../../lib/gcc/pic32c/13.2.1/../../../../pic32c/lib/thumb/v8-m.base/nofp\libc-musl.a(libc.o)
 .comment       0x00000035       0x36 C:/Program Files/Microchip/xc32/v5.00/bin/bin/../../lib/gcc/pic32c/13.2.1/../../../../pic32c/lib/thumb/v8-m.base/nofp\libc-musl.a(__environ.o)
 .comment       0x00000035       0x36 C:/Program Files/Microchip/xc32/v5.00/bin/bin/../../lib/gcc/pic32c/13.2.1/../../../../pic32c/lib/thumb/v8-m.base/nofp\libpic32c.a(pic32_data_init_clear.o)
 .comment       0x00000035       0x36 C:/Program Files/Microchip/xc32/v5.00/bin/bin/../../lib/gcc/pic32c/13.2.1/../../../../pic32c/lib/thumb/v8-m.base/nofp\libpic32c.a(pic32_data_init_copy.o)

.debug_info     0x00000000     0x4cb3
 .debug_info    0x00000000      0x6b7 build/default/production/_ext/1984496892/plib_clock.o
 .debug_info    0x000006b7      0x28f build/default/production/_ext/60166132/plib_dac.o
 .debug_info    0x00000946       0x9b build/default/production/_ext/1986646378/plib_evsys.o
 .debug_info    0x000009e1      0x8f7 build/default/production/_ext/1865468468/plib_nvic.o
 .debug_info    0x000012d8      0x807 build/default/production/_ext/1593096446/plib_nvmctrl.o
 .debug_info    0x00001adf      0x236 build/default/production/_ext/829342769/plib_pm.o
 .debug_info    0x00001d15      0x791 build/default/production/_ext/1865521619/plib_port.o
 .debug_info    0x000024a6      0x83f build/default/production/_ext/829342655/plib_tc0.o
 .debug_info    0x00002ce5      0x3ab build/default/production/_ext/1171490990/initialization.o
 .debug_info    0x00003090      0x6ac build/default/production/_ext/1171490990/interrupts.o
 .debug_info    0x0000373c       0xb3 build/default/production/_ext/1171490990/exceptions.o
 .debug_info    0x000037ef      0x200 build/default/production/_ext/1171490990/startup_xc32.o
 .debug_info    0x000039ef      0x379 build/default/production/_ext/1360937237/main.o
 .debug_info    0x00003d68       0xaf build/default/production/_ext/471191132/alert_audio.o
 .debug_info    0x00003e17       0x70 build/default/production/_ext/471191132/Marathi_audio.o
 .debug_info    0x00003e87      0x3cf build/default/production/_ext/60167341/plib_eic.o
 .debug_info    0x00004256      0x212 C:/Program Files/Microchip/xc32/v5.00/bin/bin/../../lib/gcc/pic32c/13.2.1/../../../../pic32c/lib/thumb/v8-m.base/nofp\libpic32c.a(data_init.o)
 .debug_info    0x00004468      0x2fb C:/Program Files/Microchip/xc32/v5.00/bin/bin/../../lib/gcc/pic32c/13.2.1/../../../../pic32c/lib/thumb/v8-m.base/nofp\libc-musl.a(__libc_start_main.o)
 .debug_info    0x00004763      0x276 C:/Program Files/Microchip/xc32/v5.00/bin/bin/../../lib/gcc/pic32c/13.2.1/../../../../pic32c/lib/thumb/v8-m.base/nofp\libc-musl.a(libc.o)
 .debug_info    0x000049d9       0x97 C:/Program Files/Microchip/xc32/v5.00/bin/bin/../../lib/gcc/pic32c/13.2.1/../../../../pic32c/lib/thumb/v8-m.base/nofp\libc-musl.a(__environ.o)
 .debug_info    0x00004a70      0x117 C:/Program Files/Microchip/xc32/v5.00/bin/bin/../../lib/gcc/pic32c/13.2.1/../../../../pic32c/lib/thumb/v8-m.base/nofp\libpic32c.a(pic32_data_init_clear.o)
 .debug_info    0x00004b87      0x12c C:/Program Files/Microchip/xc32/v5.00/bin/bin/../../lib/gcc/pic32c/13.2.1/../../../../pic32c/lib/thumb/v8-m.base/nofp\libpic32c.a(pic32_data_init_copy.o)

.debug_abbrev   0x00000000     0x17f0
 .debug_abbrev  0x00000000      0x142 build/default/production/_ext/1984496892/plib_clock.o
 .debug_abbrev  0x00000142      0x11f build/default/production/_ext/60166132/plib_dac.o
 .debug_abbrev  0x00000261       0x46 build/default/production/_ext/1986646378/plib_evsys.o
 .debug_abbrev  0x000002a7      0x24c build/default/production/_ext/1865468468/plib_nvic.o
 .debug_abbrev  0x000004f3      0x1ee build/default/production/_ext/1593096446/plib_nvmctrl.o
 .debug_abbrev  0x000006e1      0x106 build/default/production/_ext/829342769/plib_pm.o
 .debug_abbrev  0x000007e7      0x1ea build/default/production/_ext/1865521619/plib_port.o
 .debug_abbrev  0x000009d1      0x1be build/default/production/_ext/829342655/plib_tc0.o
 .debug_abbrev  0x00000b8f       0xf0 build/default/production/_ext/1171490990/initialization.o
 .debug_abbrev  0x00000c7f       0xd3 build/default/production/_ext/1171490990/interrupts.o
 .debug_abbrev  0x00000d52       0x49 build/default/production/_ext/1171490990/exceptions.o
 .debug_abbrev  0x00000d9b      0x12c build/default/production/_ext/1171490990/startup_xc32.o
 .debug_abbrev  0x00000ec7      0x1b0 build/default/production/_ext/1360937237/main.o
 .debug_abbrev  0x00001077       0x65 build/default/production/_ext/471191132/alert_audio.o
 .debug_abbrev  0x000010dc       0x5a build/default/production/_ext/471191132/Marathi_audio.o
 .debug_abbrev  0x00001136      0x19d build/default/production/_ext/60167341/plib_eic.o
 .debug_abbrev  0x000012d3      0x156 C:/Program Files/Microchip/xc32/v5.00/bin/bin/../../lib/gcc/pic32c/13.2.1/../../../../pic32c/lib/thumb/v8-m.base/nofp\libpic32c.a(data_init.o)
 .debug_abbrev  0x00001429      0x133 C:/Program Files/Microchip/xc32/v5.00/bin/bin/../../lib/gcc/pic32c/13.2.1/../../../../pic32c/lib/thumb/v8-m.base/nofp\libc-musl.a(__libc_start_main.o)
 .debug_abbrev  0x0000155c       0xd4 C:/Program Files/Microchip/xc32/v5.00/bin/bin/../../lib/gcc/pic32c/13.2.1/../../../../pic32c/lib/thumb/v8-m.base/nofp\libc-musl.a(libc.o)
 .debug_abbrev  0x00001630       0x62 C:/Program Files/Microchip/xc32/v5.00/bin/bin/../../lib/gcc/pic32c/13.2.1/../../../../pic32c/lib/thumb/v8-m.base/nofp\libc-musl.a(__environ.o)
 .debug_abbrev  0x00001692       0xa5 C:/Program Files/Microchip/xc32/v5.00/bin/bin/../../lib/gcc/pic32c/13.2.1/../../../../pic32c/lib/thumb/v8-m.base/nofp\libpic32c.a(pic32_data_init_clear.o)
 .debug_abbrev  0x00001737       0xb9 C:/Program Files/Microchip/xc32/v5.00/bin/bin/../../lib/gcc/pic32c/13.2.1/../../../../pic32c/lib/thumb/v8-m.base/nofp\libpic32c.a(pic32_data_init_copy.o)

.debug_loc      0x00000000     0x1207
 .debug_loc     0x00000000       0x20 build/default/production/_ext/1984496892/plib_clock.o
 .debug_loc     0x00000020       0x56 build/default/production/_ext/60166132/plib_dac.o
 .debug_loc     0x00000076      0x1c3 build/default/production/_ext/1865468468/plib_nvic.o
 .debug_loc     0x00000239      0x627 build/default/production/_ext/1593096446/plib_nvmctrl.o
 .debug_loc     0x00000860       0x69 build/default/production/_ext/829342769/plib_pm.o
 .debug_loc     0x000008c9      0x2b8 build/default/production/_ext/1865521619/plib_port.o
 .debug_loc     0x00000b81       0x7a build/default/production/_ext/829342655/plib_tc0.o
 .debug_loc     0x00000bfb       0x4b build/default/production/_ext/1171490990/initialization.o
 .debug_loc     0x00000c46       0x20 build/default/production/_ext/1171490990/startup_xc32.o
 .debug_loc     0x00000c66       0x8e build/default/production/_ext/1360937237/main.o
 .debug_loc     0x00000cf4      0x114 build/default/production/_ext/60167341/plib_eic.o
 .debug_loc     0x00000e08      0x113 C:/Program Files/Microchip/xc32/v5.00/bin/bin/../../lib/gcc/pic32c/13.2.1/../../../../pic32c/lib/thumb/v8-m.base/nofp\libpic32c.a(data_init.o)
 .debug_loc     0x00000f1b       0x5e C:/Program Files/Microchip/xc32/v5.00/bin/bin/../../lib/gcc/pic32c/13.2.1/../../../../pic32c/lib/thumb/v8-m.base/nofp\libc-musl.a(__libc_start_main.o)
 .debug_loc     0x00000f79       0xf7 C:/Program Files/Microchip/xc32/v5.00/bin/bin/../../lib/gcc/pic32c/13.2.1/../../../../pic32c/lib/thumb/v8-m.base/nofp\libpic32c.a(pic32_data_init_clear.o)
 .debug_loc     0x00001070      0x197 C:/Program Files/Microchip/xc32/v5.00/bin/bin/../../lib/gcc/pic32c/13.2.1/../../../../pic32c/lib/thumb/v8-m.base/nofp\libpic32c.a(pic32_data_init_copy.o)

.debug_aranges  0x00000000      0x470
 .debug_aranges
                0x00000000       0x20 build/default/production/_ext/1984496892/plib_clock.o
 .debug_aranges
                0x00000020       0x30 build/default/production/_ext/60166132/plib_dac.o
 .debug_aranges
                0x00000050       0x20 build/default/production/_ext/1986646378/plib_evsys.o
 .debug_aranges
                0x00000070       0x48 build/default/production/_ext/1865468468/plib_nvic.o
 .debug_aranges
                0x000000b8       0xa0 build/default/production/_ext/1593096446/plib_nvmctrl.o
 .debug_aranges
                0x00000158       0x40 build/default/production/_ext/829342769/plib_pm.o
 .debug_aranges
                0x00000198       0x70 build/default/production/_ext/1865521619/plib_port.o
 .debug_aranges
                0x00000208       0x70 build/default/production/_ext/829342655/plib_tc0.o
 .debug_aranges
                0x00000278       0x20 build/default/production/_ext/1171490990/initialization.o
 .debug_aranges
                0x00000298       0x20 build/default/production/_ext/1171490990/interrupts.o
 .debug_aranges
                0x000002b8       0x28 build/default/production/_ext/1171490990/exceptions.o
 .debug_aranges
                0x000002e0       0x28 build/default/production/_ext/1171490990/startup_xc32.o
 .debug_aranges
                0x00000308       0x30 build/default/production/_ext/1360937237/main.o
 .debug_aranges
                0x00000338       0x18 build/default/production/_ext/471191132/alert_audio.o
 .debug_aranges
                0x00000350       0x18 build/default/production/_ext/471191132/Marathi_audio.o
 .debug_aranges
                0x00000368       0x40 build/default/production/_ext/60167341/plib_eic.o
 .debug_aranges
                0x000003a8       0x30 C:/Program Files/Microchip/xc32/v5.00/bin/bin/../../lib/gcc/pic32c/13.2.1/../../../../pic32c/lib/thumb/v8-m.base/nofp\libpic32c.a(data_init.o)
 .debug_aranges
                0x000003d8       0x28 C:/Program Files/Microchip/xc32/v5.00/bin/bin/../../lib/gcc/pic32c/13.2.1/../../../../pic32c/lib/thumb/v8-m.base/nofp\libc-musl.a(__libc_start_main.o)
 .debug_aranges
                0x00000400       0x18 C:/Program Files/Microchip/xc32/v5.00/bin/bin/../../lib/gcc/pic32c/13.2.1/../../../../pic32c/lib/thumb/v8-m.base/nofp\libc-musl.a(libc.o)
 .debug_aranges
                0x00000418       0x18 C:/Program Files/Microchip/xc32/v5.00/bin/bin/../../lib/gcc/pic32c/13.2.1/../../../../pic32c/lib/thumb/v8-m.base/nofp\libc-musl.a(__environ.o)
 .debug_aranges
                0x00000430       0x20 C:/Program Files/Microchip/xc32/v5.00/bin/bin/../../lib/gcc/pic32c/13.2.1/../../../../pic32c/lib/thumb/v8-m.base/nofp\libpic32c.a(pic32_data_init_clear.o)
 .debug_aranges
                0x00000450       0x20 C:/Program Files/Microchip/xc32/v5.00/bin/bin/../../lib/gcc/pic32c/13.2.1/../../../../pic32c/lib/thumb/v8-m.base/nofp\libpic32c.a(pic32_data_init_copy.o)

.debug_ranges   0x00000000      0x328
 .debug_ranges  0x00000000       0x10 build/default/production/_ext/1984496892/plib_clock.o
 .debug_ranges  0x00000010       0x20 build/default/production/_ext/60166132/plib_dac.o
 .debug_ranges  0x00000030       0x10 build/default/production/_ext/1986646378/plib_evsys.o
 .debug_ranges  0x00000040       0x50 build/default/production/_ext/1865468468/plib_nvic.o
 .debug_ranges  0x00000090       0x90 build/default/production/_ext/1593096446/plib_nvmctrl.o
 .debug_ranges  0x00000120       0x30 build/default/production/_ext/829342769/plib_pm.o
 .debug_ranges  0x00000150       0x60 build/default/production/_ext/1865521619/plib_port.o
 .debug_ranges  0x000001b0       0x60 build/default/production/_ext/829342655/plib_tc0.o
 .debug_ranges  0x00000210       0x10 build/default/production/_ext/1171490990/initialization.o
 .debug_ranges  0x00000220       0x10 build/default/production/_ext/1171490990/interrupts.o
 .debug_ranges  0x00000230       0x18 build/default/production/_ext/1171490990/exceptions.o
 .debug_ranges  0x00000248       0x18 build/default/production/_ext/1171490990/startup_xc32.o
 .debug_ranges  0x00000260       0x20 build/default/production/_ext/1360937237/main.o
 .debug_ranges  0x00000280       0x30 build/default/production/_ext/60167341/plib_eic.o
 .debug_ranges  0x000002b0       0x20 C:/Program Files/Microchip/xc32/v5.00/bin/bin/../../lib/gcc/pic32c/13.2.1/../../../../pic32c/lib/thumb/v8-m.base/nofp\libpic32c.a(data_init.o)
 .debug_ranges  0x000002d0       0x38 C:/Program Files/Microchip/xc32/v5.00/bin/bin/../../lib/gcc/pic32c/13.2.1/../../../../pic32c/lib/thumb/v8-m.base/nofp\libc-musl.a(__libc_start_main.o)
 .debug_ranges  0x00000308       0x10 C:/Program Files/Microchip/xc32/v5.00/bin/bin/../../lib/gcc/pic32c/13.2.1/../../../../pic32c/lib/thumb/v8-m.base/nofp\libpic32c.a(pic32_data_init_clear.o)
 .debug_ranges  0x00000318       0x10 C:/Program Files/Microchip/xc32/v5.00/bin/bin/../../lib/gcc/pic32c/13.2.1/../../../../pic32c/lib/thumb/v8-m.base/nofp\libpic32c.a(pic32_data_init_copy.o)

.debug_line     0x00000000     0x2a06
 .debug_line    0x00000000      0x2c7 build/default/production/_ext/1984496892/plib_clock.o
 .debug_line    0x000002c7      0x1ea build/default/production/_ext/60166132/plib_dac.o
 .debug_line    0x000004b1       0x66 build/default/production/_ext/1986646378/plib_evsys.o
 .debug_line    0x00000517      0x3ee build/default/production/_ext/1865468468/plib_nvic.o
 .debug_line    0x00000905      0x4c1 build/default/production/_ext/1593096446/plib_nvmctrl.o
 .debug_line    0x00000dc6      0x2ad build/default/production/_ext/829342769/plib_pm.o
 .debug_line    0x00001073      0x2fe build/default/production/_ext/1865521619/plib_port.o
 .debug_line    0x00001371      0x412 build/default/production/_ext/829342655/plib_tc0.o
 .debug_line    0x00001783      0x2d7 build/default/production/_ext/1171490990/initialization.o
 .debug_line    0x00001a5a       0xcd build/default/production/_ext/1171490990/interrupts.o
 .debug_line    0x00001b27       0x75 build/default/production/_ext/1171490990/exceptions.o
 .debug_line    0x00001b9c      0x15a build/default/production/_ext/1171490990/startup_xc32.o
 .debug_line    0x00001cf6      0x222 build/default/production/_ext/1360937237/main.o
 .debug_line    0x00001f18       0x51 build/default/production/_ext/471191132/alert_audio.o
 .debug_line    0x00001f69       0x53 build/default/production/_ext/471191132/Marathi_audio.o
 .debug_line    0x00001fbc      0x313 build/default/production/_ext/60167341/plib_eic.o
 .debug_line    0x000022cf      0x165 C:/Program Files/Microchip/xc32/v5.00/bin/bin/../../lib/gcc/pic32c/13.2.1/../../../../pic32c/lib/thumb/v8-m.base/nofp\libpic32c.a(data_init.o)
 .debug_line    0x00002434      0x1ce C:/Program Files/Microchip/xc32/v5.00/bin/bin/../../lib/gcc/pic32c/13.2.1/../../../../pic32c/lib/thumb/v8-m.base/nofp\libc-musl.a(__libc_start_main.o)
 .debug_line    0x00002602       0xb5 C:/Program Files/Microchip/xc32/v5.00/bin/bin/../../lib/gcc/pic32c/13.2.1/../../../../pic32c/lib/thumb/v8-m.base/nofp\libc-musl.a(libc.o)
 .debug_line    0x000026b7       0xfb C:/Program Files/Microchip/xc32/v5.00/bin/bin/../../lib/gcc/pic32c/13.2.1/../../../../pic32c/lib/thumb/v8-m.base/nofp\libc-musl.a(__environ.o)
 .debug_line    0x000027b2      0x11e C:/Program Files/Microchip/xc32/v5.00/bin/bin/../../lib/gcc/pic32c/13.2.1/../../../../pic32c/lib/thumb/v8-m.base/nofp\libpic32c.a(pic32_data_init_clear.o)
 .debug_line    0x000028d0      0x136 C:/Program Files/Microchip/xc32/v5.00/bin/bin/../../lib/gcc/pic32c/13.2.1/../../../../pic32c/lib/thumb/v8-m.base/nofp\libpic32c.a(pic32_data_init_copy.o)

.debug_str      0x00000000     0x2fa8
 .debug_str     0x00000000     0x2fa8 build/default/production/_ext/1984496892/plib_clock.o
                                0x715 (size before relaxing)
 .debug_str     0x00002fa8      0x40a build/default/production/_ext/60166132/plib_dac.o
 .debug_str     0x00002fa8      0x2f9 build/default/production/_ext/1986646378/plib_evsys.o
 .debug_str     0x00002fa8      0x929 build/default/production/_ext/1865468468/plib_nvic.o
 .debug_str     0x00002fa8      0x6c6 build/default/production/_ext/1593096446/plib_nvmctrl.o
 .debug_str     0x00002fa8      0x3fc build/default/production/_ext/829342769/plib_pm.o
 .debug_str     0x00002fa8      0xa49 build/default/production/_ext/1865521619/plib_port.o
 .debug_str     0x00002fa8      0x616 build/default/production/_ext/829342655/plib_tc0.o
 .debug_str     0x00002fa8      0x4e1 build/default/production/_ext/1171490990/initialization.o
 .debug_str     0x00002fa8      0xa2d build/default/production/_ext/1171490990/interrupts.o
 .debug_str     0x00002fa8      0x300 build/default/production/_ext/1171490990/exceptions.o
 .debug_str     0x00002fa8      0x377 build/default/production/_ext/1171490990/startup_xc32.o
 .debug_str     0x00002fa8      0x4ad build/default/production/_ext/1360937237/main.o
 .debug_str     0x00002fa8      0x326 build/default/production/_ext/471191132/alert_audio.o
 .debug_str     0x00002fa8      0x2ac build/default/production/_ext/471191132/Marathi_audio.o
 .debug_str     0x00002fa8      0x4c1 build/default/production/_ext/60167341/plib_eic.o
 .debug_str     0x00002fa8      0x2f8 C:/Program Files/Microchip/xc32/v5.00/bin/bin/../../lib/gcc/pic32c/13.2.1/../../../../pic32c/lib/thumb/v8-m.base/nofp\libpic32c.a(data_init.o)
 .debug_str     0x00002fa8      0x3e6 C:/Program Files/Microchip/xc32/v5.00/bin/bin/../../lib/gcc/pic32c/13.2.1/../../../../pic32c/lib/thumb/v8-m.base/nofp\libc-musl.a(__libc_start_main.o)
 .debug_str     0x00002fa8      0x351 C:/Program Files/Microchip/xc32/v5.00/bin/bin/../../lib/gcc/pic32c/13.2.1/../../../../pic32c/lib/thumb/v8-m.base/nofp\libc-musl.a(libc.o)
 .debug_str     0x00002fa8      0x251 C:/Program Files/Microchip/xc32/v5.00/bin/bin/../../lib/gcc/pic32c/13.2.1/../../../../pic32c/lib/thumb/v8-m.base/nofp\libc-musl.a(__environ.o)
 .debug_str     0x00002fa8      0x289 C:/Program Files/Microchip/xc32/v5.00/bin/bin/../../lib/gcc/pic32c/13.2.1/../../../../pic32c/lib/thumb/v8-m.base/nofp\libpic32c.a(pic32_data_init_clear.o)
 .debug_str     0x00002fa8      0x290 C:/Program Files/Microchip/xc32/v5.00/bin/bin/../../lib/gcc/pic32c/13.2.1/../../../../pic32c/lib/thumb/v8-m.base/nofp\libpic32c.a(pic32_data_init_copy.o)

.debug_frame    0x00000000      0x6a8
 .debug_frame   0x00000000       0x20 build/default/production/_ext/1984496892/plib_clock.o
 .debug_frame   0x00000020       0x40 build/default/production/_ext/60166132/plib_dac.o
 .debug_frame   0x00000060       0x20 build/default/production/_ext/1986646378/plib_evsys.o
 .debug_frame   0x00000080       0x7c build/default/production/_ext/1865468468/plib_nvic.o
 .debug_frame   0x000000fc      0x15c build/default/production/_ext/1593096446/plib_nvmctrl.o
 .debug_frame   0x00000258       0x60 build/default/production/_ext/829342769/plib_pm.o
 .debug_frame   0x000002b8       0xd8 build/default/production/_ext/1865521619/plib_port.o
 .debug_frame   0x00000390       0xc8 build/default/production/_ext/829342655/plib_tc0.o
 .debug_frame   0x00000458       0x28 build/default/production/_ext/1171490990/initialization.o
 .debug_frame   0x00000480       0x20 build/default/production/_ext/1171490990/interrupts.o
 .debug_frame   0x000004a0       0x30 build/default/production/_ext/1171490990/exceptions.o
 .debug_frame   0x000004d0       0x38 build/default/production/_ext/1171490990/startup_xc32.o
 .debug_frame   0x00000508       0x50 build/default/production/_ext/1360937237/main.o
 .debug_frame   0x00000558       0x88 build/default/production/_ext/60167341/plib_eic.o
 .debug_frame   0x000005e0       0x48 C:/Program Files/Microchip/xc32/v5.00/bin/bin/../../lib/gcc/pic32c/13.2.1/../../../../pic32c/lib/thumb/v8-m.base/nofp\libpic32c.a(data_init.o)
 .debug_frame   0x00000628       0x38 C:/Program Files/Microchip/xc32/v5.00/bin/bin/../../lib/gcc/pic32c/13.2.1/../../../../pic32c/lib/thumb/v8-m.base/nofp\libc-musl.a(__libc_start_main.o)
 .debug_frame   0x00000660       0x20 C:/Program Files/Microchip/xc32/v5.00/bin/bin/../../lib/gcc/pic32c/13.2.1/../../../../pic32c/lib/thumb/v8-m.base/nofp\libpic32c.a(pic32_data_init_clear.o)
 .debug_frame   0x00000680       0x28 C:/Program Files/Microchip/xc32/v5.00/bin/bin/../../lib/gcc/pic32c/13.2.1/../../../../pic32c/lib/thumb/v8-m.base/nofp\libpic32c.a(pic32_data_init_copy.o)

.note.GNU-stack
                0x00000000        0x0
 .note.GNU-stack
                0x00000000        0x0 C:/Program Files/Microchip/xc32/v5.00/bin/bin/../../lib/gcc/pic32c/13.2.1/../../../../pic32c/lib/thumb/v8-m.base/nofp\libc-musl.a(__libc_start_main.o)
 .note.GNU-stack
                0x00000000        0x0 C:/Program Files/Microchip/xc32/v5.00/bin/bin/../../lib/gcc/pic32c/13.2.1/../../../../pic32c/lib/thumb/v8-m.base/nofp\libc-musl.a(libc.o)
 .note.GNU-stack
                0x00000000        0x0 C:/Program Files/Microchip/xc32/v5.00/bin/bin/../../lib/gcc/pic32c/13.2.1/../../../../pic32c/lib/thumb/v8-m.base/nofp\libc-musl.a(__environ.o)

.vfp11_veneer%z1

.v4_bx%z2

.iplt%z3

.rel.iplt%z4

.igot.plt%z5

.bss.eicCallbackObject%1
                0x20000000       0xc0
 .bss.eicCallbackObject
                0x20000000       0xc0 build/default/production/_ext/60167341/plib_eic.o

.bss%2          0x200000c0       0x50
 .bss           0x200000c0       0x50 C:/Program Files/Microchip/xc32/v5.00/bin/bin/../../lib/gcc/pic32c/13.2.1/../../../../pic32c/lib/thumb/v8-m.base/nofp\libc-musl.a(libc.o)
                0x200000c0                __progname_full
                0x200000c0                program_invocation_name
                0x200000c4                program_invocation_short_name
                0x200000c4                __progname
                0x200000c8                __sysinfo
                0x200000cc                __hwcap
                0x200000d0                __libc

.bss%3          0x20000110       0x1c
 .bss           0x20000110       0x1c C:/Program Files/Microchip/xc32/v5.00/bin/bin/../../lib/gcc/pic32c/13.2.1/thumb/v8-m.base/nofp/crtbegin.o

.bss.TC0_CallbackObject%4
                0x2000012c        0x8
 .bss.TC0_CallbackObject
                0x2000012c        0x8 build/default/production/_ext/829342655/plib_tc0.o

.bss.audio_index%5
                0x20000134        0x4
 .bss.audio_index
                0x20000134        0x4 build/default/production/_ext/1360937237/main.o
                0x20000134                audio_index

.bss%6          0x20000138        0x4
 .bss           0x20000138        0x4 C:/Program Files/Microchip/xc32/v5.00/bin/bin/../../lib/gcc/pic32c/13.2.1/../../../../pic32c/lib/thumb/v8-m.base/nofp\libpic32c.a(data_init.o)

.bss%7          0x2000013c        0x4
 .bss           0x2000013c        0x4 C:/Program Files/Microchip/xc32/v5.00/bin/bin/../../lib/gcc/pic32c/13.2.1/../../../../pic32c/lib/thumb/v8-m.base/nofp\libc-musl.a(__environ.o)
                0x2000013c                __environ
                0x2000013c                environ
                0x2000013c                ___environ
                0x2000013c                _environ

.bss.sw0_pressed%8
                0x20000140        0x1
 .bss.sw0_pressed
                0x20000140        0x1 build/default/production/_ext/1360937237/main.o
                0x20000140                sw0_pressed

.data.attention_clear_area_female_455102_raw_len%9
                0x20000144        0x4
 .data.attention_clear_area_female_455102_raw_len
                0x20000144        0x4 build/default/production/_ext/471191132/alert_audio.o
                0x20000144                attention_clear_area_female_455102_raw_len

.data.Hrudayat_Vaje_Something_80kb_raw_len%10
                0x20000148        0x4
 .data.Hrudayat_Vaje_Something_80kb_raw_len
                0x20000148        0x4 build/default/production/_ext/471191132/Marathi_audio.o
                0x20000148                Hrudayat_Vaje_Something_80kb_raw_len

.eh_frame%z6    0x00000000        0x0
 .eh_frame      0x00000000        0x0 C:/Program Files/Microchip/xc32/v5.00/bin/bin/../../lib/gcc/pic32c/13.2.1/thumb/v8-m.base/nofp/crtbegin.o

.config_0080C004%11
                0x0080c004        0x4
 .config_0080C004
                0x0080c004        0x4 build/default/production/_ext/1171490990/initialization.o
                0x0080c004                __config_0080C004

.config_0080C040%12
                0x0080c040        0x4
 .config_0080C040
                0x0080c040        0x4 build/default/production/_ext/1171490990/initialization.o
                0x0080c040                __config_0080C040

.config_0080C044%13
                0x0080c044        0x4
 .config_0080C044
                0x0080c044        0x4 build/default/production/_ext/1171490990/initialization.o
                0x0080c044                __config_0080C044

.config_0080C048%14
                0x0080c048        0x4
 .config_0080C048
                0x0080c048        0x4 build/default/production/_ext/1171490990/initialization.o
                0x0080c048                __config_0080C048

.config_0080C04C%15
                0x0080c04c        0x4
 .config_0080C04C
                0x0080c04c        0x4 build/default/production/_ext/1171490990/initialization.o
                0x0080c04c                __config_0080C04C

.rodata.Hrudayat_Vaje_Something_80kb_raw%16
                0x0000017c    0x13ffe
 .rodata.Hrudayat_Vaje_Something_80kb_raw
                0x0000017c    0x13ffe build/default/production/_ext/471191132/Marathi_audio.o
                0x0000017c                Hrudayat_Vaje_Something_80kb_raw

.rodata.attention_clear_area_female_455102_raw%17
                0x0001417c    0x114c0
 .rodata.attention_clear_area_female_455102_raw
                0x0001417c    0x114c0 build/default/production/_ext/471191132/alert_audio.o
                0x0001417c                attention_clear_area_female_455102_raw

.text.CLOCK_Initialize%18
                0x0002563c      0x100
 .text.CLOCK_Initialize
                0x0002563c      0x100 build/default/production/_ext/1984496892/plib_clock.o
                0x0002563c                CLOCK_Initialize

.text.EIC_Initialize%19
                0x0002573c       0x9e
 .text.EIC_Initialize
                0x0002573c       0x9e build/default/production/_ext/60167341/plib_eic.o
                0x0002573c                EIC_Initialize

.text.TC0_Callback%20
                0x000257da       0x8c
 .text.TC0_Callback
                0x000257da       0x8c build/default/production/_ext/1360937237/main.o
                0x000257da                TC0_Callback

.text.EIC_OTHER_InterruptHandler%21
                0x00025866       0x76
 .text.EIC_OTHER_InterruptHandler
                0x00025866       0x76 build/default/production/_ext/60167341/plib_eic.o
                0x00025866                EIC_OTHER_InterruptHandler

.dinit%22       0x000258dc       0x70
 .dinit         0x000258dc       0x70 data_init

.text.__libc_start_init%23
                0x0002594c       0x5c
 .text.__libc_start_init
                0x0002594c       0x5c C:/Program Files/Microchip/xc32/v5.00/bin/bin/../../lib/gcc/pic32c/13.2.1/../../../../pic32c/lib/thumb/v8-m.base/nofp\libc-musl.a(__libc_start_main.o)
                0x0002594c                __libc_init_array

.text.TC0_TimerInitialize%24
                0x000259a8       0x56
 .text.TC0_TimerInitialize
                0x000259a8       0x56 build/default/production/_ext/829342655/plib_tc0.o
                0x000259a8                TC0_TimerInitialize

.text.Reset_Handler%25
                0x000259fe       0x54
 .text.Reset_Handler
                0x000259fe       0x54 build/default/production/_ext/1171490990/startup_xc32.o
                0x000259fe                Reset_Handler

.text.DAC_Initialize%26
                0x00025a52       0x46
 .text.DAC_Initialize
                0x00025a52       0x46 build/default/production/_ext/60166132/plib_dac.o
                0x00025a52                DAC_Initialize

.text%27        0x00025a98       0x40
 .text          0x00025a98       0x40 C:/Program Files/Microchip/xc32/v5.00/bin/bin/../../lib/gcc/pic32c/13.2.1/thumb/v8-m.base/nofp/crtbegin.o

.text.TC0_TimerInterruptHandler%28
                0x00025ad8       0x3c
 .text.TC0_TimerInterruptHandler
                0x00025ad8       0x3c build/default/production/_ext/829342655/plib_tc0.o
                0x00025ad8                TC0_TimerInterruptHandler

.text.NVIC_Initialize%29
                0x00025b14       0x3a
 .text.NVIC_Initialize
                0x00025b14       0x3a build/default/production/_ext/1865468468/plib_nvic.o
                0x00025b14                NVIC_Initialize

.text.PM_Initialize%30
                0x00025b4e       0x38
 .text.PM_Initialize
                0x00025b4e       0x38 build/default/production/_ext/829342769/plib_pm.o
                0x00025b4e                PM_Initialize

.text.PORT_Initialize%31
                0x00025b86       0x36
 .text.PORT_Initialize
                0x00025b86       0x36 build/default/production/_ext/1865521619/plib_port.o
                0x00025b86                PORT_Initialize

.text.EIC_CallbackRegister%32
                0x00025bbc       0x36
 .text.EIC_CallbackRegister
                0x00025bbc       0x36 build/default/production/_ext/60167341/plib_eic.o
                0x00025bbc                EIC_CallbackRegister

.text.SYS_Initialize%33
                0x00025bf2       0x34
 .text.SYS_Initialize
                0x00025bf2       0x34 build/default/production/_ext/1171490990/initialization.o
                0x00025bf2                SYS_Initialize

.text.__pic32c_data_initialization%34
                0x00025c28       0x34
 .text.__pic32c_data_initialization
                0x00025c28       0x34 C:/Program Files/Microchip/xc32/v5.00/bin/bin/../../lib/gcc/pic32c/13.2.1/../../../../pic32c/lib/thumb/v8-m.base/nofp\libpic32c.a(data_init.o)
                0x00025c28                __pic32c_data_initialization

.text.main%35   0x00025c5c       0x2c
 .text.main     0x00025c5c       0x2c build/default/production/_ext/1360937237/main.o
                0x00025c5c                main

.text.DAC_DataWrite%36
                0x00025c88       0x22
 .text.DAC_DataWrite
                0x00025c88       0x22 build/default/production/_ext/60166132/plib_dac.o
                0x00025c88                DAC_DataWrite

.text.TC0_TimerStart%37
                0x00025caa       0x20
 .text.TC0_TimerStart
                0x00025caa       0x20 build/default/production/_ext/829342655/plib_tc0.o
                0x00025caa                TC0_TimerStart

.text.SW0_Callback%38
                0x00025cca       0x1e
 .text.SW0_Callback
                0x00025cca       0x1e build/default/production/_ext/1360937237/main.o
                0x00025cca                SW0_Callback

.text.__dinit_copy%39
                0x00025ce8       0x1e
 .text.__dinit_copy
                0x00025ce8       0x1e C:/Program Files/Microchip/xc32/v5.00/bin/bin/../../lib/gcc/pic32c/13.2.1/../../../../pic32c/lib/thumb/v8-m.base/nofp\libpic32c.a(pic32_data_init_copy.o)
                0x00025ce8                __dinit_copy_needed
                0x00025ce8                __dinit_copy

.rodata%40      0x00025d08       0x14
 .rodata        0x00025d08       0x14 C:/Program Files/Microchip/xc32/v5.00/bin/bin/../../lib/gcc/pic32c/13.2.1/../../../../pic32c/lib/thumb/v8-m.base/nofp\libpic32c.a(data_init.o)

.text.NVMCTRL_Initialize%41
                0x00025d1c       0x12
 .text.NVMCTRL_Initialize
                0x00025d1c       0x12 build/default/production/_ext/1593096446/plib_nvmctrl.o
                0x00025d1c                NVMCTRL_Initialize

.text.__dinit_clear%42
                0x00025d2e       0x12
 .text.__dinit_clear
                0x00025d2e       0x12 C:/Program Files/Microchip/xc32/v5.00/bin/bin/../../lib/gcc/pic32c/13.2.1/../../../../pic32c/lib/thumb/v8-m.base/nofp\libpic32c.a(pic32_data_init_clear.o)
                0x00025d2e                __dinit_clear
                0x00025d2e                __dinit_clear_needed

.text.TC0_TimerCallbackRegister%43
                0x00025d40        0xe
 .text.TC0_TimerCallbackRegister
                0x00025d40        0xe build/default/production/_ext/829342655/plib_tc0.o
                0x00025d40                TC0_TimerCallbackRegister

.text.__dummy_decompress%44
                0x00025d4e        0x4
 .text.__dummy_decompress
                0x00025d4e        0x4 C:/Program Files/Microchip/xc32/v5.00/bin/bin/../../lib/gcc/pic32c/13.2.1/../../../../pic32c/lib/thumb/v8-m.base/nofp\libpic32c.a(data_init.o)
                0x00025d4e                __dinit_decompress
                0x00025d4e                __dinit_copy_val_data
                0x00025d4e                __dinit_copy_emb

.text.EVSYS_Initialize%45
                0x0001417a        0x2
 .text.EVSYS_Initialize
                0x0001417a        0x2 build/default/production/_ext/1986646378/plib_evsys.o
                0x0001417a                EVSYS_Initialize

.text.Dummy_Handler%46
                0x00025c26        0x2
 .text.Dummy_Handler
                0x00025c26        0x2 build/default/production/_ext/1171490990/interrupts.o
                0x00025c26                SVCall_Handler
                0x00025c26                SERCOM0_2_Handler
                0x00025c26                EVSYS_0_Handler
                0x00025c26                TRNG_Handler
                0x00025c26                ADC_RESRDY_Handler
                0x00025c26                TC2_Handler
                0x00025c26                AC_Handler
                0x00025c26                DMAC_OTHER_Handler
                0x00025c26                EIC_EXTINT_5_Handler
                0x00025c26                SERCOM3_1_Handler
                0x00025c26                SysTick_Handler
                0x00025c26                SERCOM4_OTHER_Handler
                0x00025c26                SERCOM3_2_Handler
                0x00025c26                EIC_EXTINT_6_Handler
                0x00025c26                PendSV_Handler
                0x00025c26                EVSYS_3_Handler
                0x00025c26                TCC1_Handler
                0x00025c26                EIC_EXTINT_4_Handler
                0x00025c26                EIC_EXTINT_7_Handler
                0x00025c26                SERCOM0_OTHER_Handler
                0x00025c26                TCC0_Handler
                0x00025c26                SERCOM0_0_Handler
                0x00025c26                RTC_Handler
                0x00025c26                SERCOM4_0_Handler
                0x00025c26                SERCOM1_OTHER_Handler
                0x00025c26                EVSYS_1_Handler
                0x00025c26                DMAC_0_Handler
                0x00025c26                WDT_Handler
                0x00025c26                TRAM_Handler
                0x00025c26                EIC_EXTINT_1_Handler
                0x00025c26                SERCOM5_0_Handler
                0x00025c26                TC1_Handler
                0x00025c26                EIC_EXTINT_0_Handler
                0x00025c26                DAC_UNDERRUN_Handler
                0x00025c26                DAC_EMPTY_Handler
                0x00025c26                PAC_Handler
                0x00025c26                USB_Handler
                0x00025c26                SERCOM4_1_Handler
                0x00025c26                Dummy_Handler
                0x00025c26                SERCOM5_1_Handler
                0x00025c26                DMAC_2_Handler
                0x00025c26                SERCOM0_1_Handler
                0x00025c26                SERCOM5_OTHER_Handler
                0x00025c26                DMAC_1_Handler
                0x00025c26                TCC3_Handler
                0x00025c26                TCC2_Handler
                0x00025c26                EIC_EXTINT_2_Handler
                0x00025c26                SERCOM1_1_Handler
                0x00025c26                EVSYS_7_Handler
                0x00025c26                I2S_Handler
                0x00025c26                NVMCTRL_Handler
                0x00025c26                SYSTEM_Handler
                0x00025c26                SERCOM1_0_Handler
                0x00025c26                SERCOM2_1_Handler
                0x00025c26                SERCOM1_2_Handler
                0x00025c26                SERCOM3_0_Handler
                0x00025c26                SERCOM4_2_Handler
                0x00025c26                EVSYS_4_Handler
                0x00025c26                SERCOM5_2_Handler
                0x00025c26                SERCOM2_2_Handler
                0x00025c26                EIC_EXTINT_3_Handler
                0x00025c26                SERCOM3_OTHER_Handler
                0x00025c26                PTC_Handler
                0x00025c26                EVSYS_6_Handler
                0x00025c26                EVSYS_5_Handler
                0x00025c26                EVSYS_2_Handler
                0x00025c26                SERCOM2_OTHER_Handler
                0x00025c26                FREQM_Handler
                0x00025c26                ADC_OTHER_Handler
                0x00025c26                DMAC_3_Handler
                0x00025c26                SERCOM2_0_Handler

.text.NonMaskableInt_Handler%47
                0x00025d06        0x2
 .text.NonMaskableInt_Handler
                0x00025d06        0x2 build/default/production/_ext/1171490990/exceptions.o
                0x00025d06                NonMaskableInt_Handler

.text.HardFault_Handler%48
                0x00025d52        0x2
 .text.HardFault_Handler
                0x00025d52        0x2 build/default/production/_ext/1171490990/exceptions.o
                0x00025d52                HardFault_Handler

.text.Dummy_App_Func%49
                0x00025d54        0x2
 .text.Dummy_App_Func
                0x00025d54        0x2 build/default/production/_ext/1171490990/startup_xc32.o
                0x00025d54                _on_reset
                0x00025d54                _on_bootstrap
                0x00025d54                __xc32_on_reset
                0x00025d54                Dummy_App_Func
                0x00025d54                __xc32_on_bootstrap

.text.__dummy_init_tls%50
                0x00025d56        0x2
 .text.__dummy_init_tls
                0x00025d56        0x2 C:/Program Files/Microchip/xc32/v5.00/bin/bin/../../lib/gcc/pic32c/13.2.1/../../../../pic32c/lib/thumb/v8-m.base/nofp\libpic32c.a(data_init.o)
                0x00025d56                xc32_init_tls

.text.__dummy%51
                0x00025d58        0x2
 .text.__dummy  0x00025d58        0x2 C:/Program Files/Microchip/xc32/v5.00/bin/bin/../../lib/gcc/pic32c/13.2.1/../../../../pic32c/lib/thumb/v8-m.base/nofp\libc-musl.a(__libc_start_main.o)
                0x00025d58                __init_stdio
                0x00025d58                __init_host
