Archive member included to satisfy reference by file (symbol)

C:/Program Files/Microchip/xc32/v5.00/bin/bin/../../lib/gcc/pic32c/13.2.1/../../../../pic32c/lib/thumb/v8-m.base/nofp\libpic32c.a(data_init.o)
                              build/default/debug/_ext/1171490990/startup_xc32.o (__pic32c_data_initialization)
C:/Program Files/Microchip/xc32/v5.00/bin/bin/../../lib/gcc/pic32c/13.2.1/../../../../pic32c/lib/thumb/v8-m.base/nofp\libc-size-musl.a(memcpy.o)
                              build/default/debug/_ext/1593096446/plib_nvmctrl.o (memcpy)
C:/Program Files/Microchip/xc32/v5.00/bin/bin/../../lib/gcc/pic32c/13.2.1/../../../../pic32c/lib/thumb/v8-m.base/nofp\libg-musl.a(__libc_start_main.o)
                              build/default/debug/_ext/1171490990/startup_xc32.o (__libc_init_array)
C:/Program Files/Microchip/xc32/v5.00/bin/bin/../../lib/gcc/pic32c/13.2.1/../../../../pic32c/lib/thumb/v8-m.base/nofp\libg-musl.a(libc.o)
                              C:/Program Files/Microchip/xc32/v5.00/bin/bin/../../lib/gcc/pic32c/13.2.1/../../../../pic32c/lib/thumb/v8-m.base/nofp\libg-musl.a(__libc_start_main.o) (__progname_full)
C:/Program Files/Microchip/xc32/v5.00/bin/bin/../../lib/gcc/pic32c/13.2.1/../../../../pic32c/lib/thumb/v8-m.base/nofp\libg-musl.a(__environ.o)
                              C:/Program Files/Microchip/xc32/v5.00/bin/bin/../../lib/gcc/pic32c/13.2.1/../../../../pic32c/lib/thumb/v8-m.base/nofp\libg-musl.a(__libc_start_main.o) (__environ)
C:/Program Files/Microchip/xc32/v5.00/bin/bin/../../lib/gcc/pic32c/13.2.1/../../../../pic32c/lib/thumb/v8-m.base/nofp\libm-fast-emfloat.a(__aeabi_fmul.o)
                              build/default/debug/_ext/1360937237/main.o (__aeabi_fmul)
C:/Program Files/Microchip/xc32/v5.00/bin/bin/../../lib/gcc/pic32c/13.2.1/../../../../pic32c/lib/thumb/v8-m.base/nofp\libm-fast-emfloat.a(__aeabi_fdiv.o)
                              build/default/debug/_ext/1360937237/main.o (__aeabi_fdiv)
C:/Program Files/Microchip/xc32/v5.00/bin/bin/../../lib/gcc/pic32c/13.2.1/../../../../pic32c/lib/thumb/v8-m.base/nofp\libm-fast-emfloat.a(__aeabi_ui2f.o)
                              build/default/debug/_ext/1360937237/main.o (__aeabi_ui2f)
C:/Program Files/Microchip/xc32/v5.00/bin/bin/../../lib/gcc/pic32c/13.2.1/../../../../pic32c/lib/thumb/v8-m.base/nofp\libpic32c.a(pic32_data_init_clear.o)
                              (__dinit_clear_needed)
C:/Program Files/Microchip/xc32/v5.00/bin/bin/../../lib/gcc/pic32c/13.2.1/../../../../pic32c/lib/thumb/v8-m.base/nofp\libpic32c.a(pic32_data_init_copy.o)
                              (__dinit_copy_needed)

Microchip PIC32 Memory-Usage Report

ROM Program-Memory Usage
section                    address  length [bytes]      (dec)  Description
-------                 ----------  -------------------------  -----------
.vectors                         0          0x15c         348   
.text                        0x15c           0x20          32  App's exec code 
.text.CLOCK_Initialize       0x17c           0xc4         196   
.text.__aeabi_fmul           0x240           0xb6         182   
.text.__aeabi_fdiv           0x2f6           0x94         148   
.text.ADC_Initialize         0x38a           0x68         104   
.text.main                   0x3f2           0x5e          94   
.text.__libc_start_init      0x450           0x5c          92   
.text.Reset_Handler          0x4ac           0x56          86   
.text.EVSYS_Initialize       0x502            0x2           2   
.dinit                       0x504           0x50          80   
.text.SYSTICK_DelayMs        0x554           0x4c          76   
.text                        0x5a0           0x40          64  App's exec code 
.text.PM_Initialize          0x5e0           0x38          56   
.text.__pic32c_data_ini      0x618           0x34          52   
.text.SYS_Initialize         0x64c           0x30          48   
.text.SysTick_Handler        0x67c           0x2e          46   
.text.SYSTICK_TimerInit      0x6aa           0x26          38   
.text.ADC_ConversionSta      0x6d0           0x22          34   
.text.ADC_ConversionSta      0x6f2           0x22          34   
.text.ADC_Enable             0x714           0x20          32   
.text.__aeabi_ui2f           0x734           0x1e          30   
.text.__dinit_copy           0x752           0x1e          30   
.text.PORT_Initialize        0x770           0x16          22   
.text.SYSTICK_TimerStar      0x786           0x16          22   
.rodata                      0x79c           0x14          20  Read-only const 
.text.NVMCTRL_Initializ      0x7b0           0x12          18   
.text.__dinit_clear          0x7c2           0x12          18   
.text.ADC_ConversionRes      0x7d4            0xe          14   
.text.NVIC_Initialize        0x7e2            0x8           8   
.text.Dummy_Handler          0x7ea            0x4           4   
.text.NonMaskableInt_Ha      0x7ee            0x4           4   
.text.HardFault_Handler      0x7f2            0x4           4   
.text.__dummy_decompres      0x7f6            0x4           4   
.text.Dummy_App_Func         0x7fa            0x2           2   
.text.__dummy_init_tls       0x7fc            0x2           2   
.text.__dummy                0x7fe            0x2           2   
      Total ROM used  :       0x800        2048  0.4% of 0x80000
        --------------------------------------------------------------------------
         Total Program Memory used  :       0x800        2048  0.4% of 0x80000
        --------------------------------------------------------------------------


RAM Data-Memory Usage
section                    address  length [bytes]      (dec)  Description
-------                 ----------  -------------------------  -----------
.bss                    0x20000000           0x50          80  Uninitialized data 
.bss                    0x20000050           0x1c          28  Uninitialized data 
.bss.systick            0x2000006c            0xc          12   
.bss.input_voltage      0x20000078            0x4           4   
.bss                    0x2000007c            0x4           4  Uninitialized data 
.bss                    0x20000080            0x4           4  Uninitialized data 
.bss.adc_count          0x20000084            0x2           2   
         Total RAM used  :        0x86         134  0.2% of 0x10000
        --------------------------------------------------------------------------
            Total Data Memory used  :        0x86         134  0.2% of 0x10000
        --------------------------------------------------------------------------


Dynamic Data-Memory Reservation
section                    address  length [bytes]      (dec)  Description
-------                 ----------  -------------------------  -----------
heap                    0x20000088          0x200         512  Reserved for heap 
stack                   0x200002a0         0xfd50       64848  Reserved for stack 

        --------------------------------------------------------------------------

Microchip PIC32 Memory-Usage Report By Module

        text        data         bss         dec         hex    basename                   filename
--------------------------------------------------------------------------------
         352           0           0         352         160    interrupts.o           build/default/debug/_ext/1171490990/interrupts.o
         218           0           0         218          da    plib_adc.o             build/default/debug/_ext/60163342/plib_adc.o
         196           0           0         196          c4    plib_clock.o           build/default/debug/_ext/1984496892/plib_clock.o
         182           0          12         194          c2    plib_systick.o         build/default/debug/_ext/1827571544/plib_systick.o
         182           0           0         182          b6    __aeabi_fmul.o         libm-fast-emfloat.a
         148           0           0         148          94    __aeabi_fdiv.o         libm-fast-emfloat.a
          64           8          28         100          64    crtbegin.o             C:/Program Files/Microchip/xc32/v5.00/bin/bin/../../lib/gcc/pic32c/13.2.1/thumb/v8-m.base/nofp/crtbegin.o
          94           0           6         100          64    main.o                 build/default/debug/_ext/1360937237/main.o
          94           0           0          94          5e    __libc_start_main.o    libg-musl.a
          88           0           0          88          58    startup_xc32.o         build/default/debug/_ext/1171490990/startup_xc32.o
          78           0           4          82          52    data_init.o            libpic32c.a
           0           0          80          80          50    libc.o                 libg-musl.a
          80           0           0          80          50    data_init              data_init
          76           0           0          76          4c    initialization.o       build/default/debug/_ext/1171490990/initialization.o
          56           0           0          56          38    plib_pm.o              build/default/debug/_ext/829342769/plib_pm.o
          30           0           0          30          1e    pic32_data_init_copy.o libpic32c.a
          30           0           0          30          1e    __aeabi_ui2f.o         libm-fast-emfloat.a
          22           0           0          22          16    plib_port.o            build/default/debug/_ext/1865521619/plib_port.o
          18           0           0          18          12    pic32_data_init_clear.olibpic32c.a
          18           0           0          18          12    plib_nvmctrl.o         build/default/debug/_ext/1593096446/plib_nvmctrl.o
          16           0           0          16          10    crtn.o                 C:/Program Files/Microchip/xc32/v5.00/bin/bin/../../lib/gcc/pic32c/13.2.1/thumb/v8-m.base/nofp/crtn.o
           8           0           0           8           8    plib_nvic.o            build/default/debug/_ext/1865468468/plib_nvic.o
           8           0           0           8           8    exceptions.o           build/default/debug/_ext/1171490990/exceptions.o
           8           0           0           8           8    crti.o                 C:/Program Files/Microchip/xc32/v5.00/bin/bin/../../lib/gcc/pic32c/13.2.1/thumb/v8-m.base/nofp/crti.o
           0           0           4           4           4    __environ.o            libg-musl.a
           2           0           0           2           2    plib_evsys.o           build/default/debug/_ext/1986646378/plib_evsys.o
--------------------------------------------------------------------------------
        2068           8         134        2210         8a2    dist/default/debug/_ADC.X.debug.elf


Discarded input sections

 .text          0x00000000        0x0 C:/Program Files/Microchip/xc32/v5.00/bin/bin/../../lib/gcc/pic32c/13.2.1/thumb/v8-m.base/nofp/crti.o
 .data          0x00000000        0x0 C:/Program Files/Microchip/xc32/v5.00/bin/bin/../../lib/gcc/pic32c/13.2.1/thumb/v8-m.base/nofp/crti.o
 .bss           0x00000000        0x0 C:/Program Files/Microchip/xc32/v5.00/bin/bin/../../lib/gcc/pic32c/13.2.1/thumb/v8-m.base/nofp/crti.o
 .xc_stack_usage.hdr
                0x00000000        0xe C:/Program Files/Microchip/xc32/v5.00/bin/bin/../../lib/gcc/pic32c/13.2.1/thumb/v8-m.base/nofp/crti.o
 .xc_stack_usage
                0x00000000       0x26 C:/Program Files/Microchip/xc32/v5.00/bin/bin/../../lib/gcc/pic32c/13.2.1/thumb/v8-m.base/nofp/crti.o
 .data          0x00000000        0x4 C:/Program Files/Microchip/xc32/v5.00/bin/bin/../../lib/gcc/pic32c/13.2.1/thumb/v8-m.base/nofp/crtbegin.o
 .rodata        0x00000000       0x24 C:/Program Files/Microchip/xc32/v5.00/bin/bin/../../lib/gcc/pic32c/13.2.1/thumb/v8-m.base/nofp/crtbegin.o
 .xc_stack_usage
                0x00000000       0x3c C:/Program Files/Microchip/xc32/v5.00/bin/bin/../../lib/gcc/pic32c/13.2.1/thumb/v8-m.base/nofp/crtbegin.o
 .xc_stack_usage.hdr
                0x00000000        0xe C:/Program Files/Microchip/xc32/v5.00/bin/bin/../../lib/gcc/pic32c/13.2.1/thumb/v8-m.base/nofp/crtbegin.o
 .text          0x00000000        0x0 build/default/debug/_ext/60163342/plib_adc.o
 .data          0x00000000        0x0 build/default/debug/_ext/60163342/plib_adc.o
 .bss           0x00000000        0x0 build/default/debug/_ext/60163342/plib_adc.o
 .text.ADC_Disable
                0x00000000       0x20 build/default/debug/_ext/60163342/plib_adc.o
 .text.ADC_ChannelSelect
                0x00000000       0x1e build/default/debug/_ext/60163342/plib_adc.o
 .text.ADC_ConversionSequenceIsFinished
                0x00000000       0x12 build/default/debug/_ext/60163342/plib_adc.o
 .text.ADC_ComparisonWindowSet
                0x00000000       0x2e build/default/debug/_ext/60163342/plib_adc.o
 .text.ADC_WindowModeSet
                0x00000000       0x2c build/default/debug/_ext/60163342/plib_adc.o
 .text.ADC_InterruptsClear
                0x00000000        0xe build/default/debug/_ext/60163342/plib_adc.o
 .text.ADC_InterruptsEnable
                0x00000000        0xe build/default/debug/_ext/60163342/plib_adc.o
 .text.ADC_InterruptsDisable
                0x00000000        0xe build/default/debug/_ext/60163342/plib_adc.o
 .text          0x00000000        0x0 build/default/debug/_ext/1984496892/plib_clock.o
 .data          0x00000000        0x0 build/default/debug/_ext/1984496892/plib_clock.o
 .bss           0x00000000        0x0 build/default/debug/_ext/1984496892/plib_clock.o
 .text          0x00000000        0x0 build/default/debug/_ext/1986646378/plib_evsys.o
 .data          0x00000000        0x0 build/default/debug/_ext/1986646378/plib_evsys.o
 .bss           0x00000000        0x0 build/default/debug/_ext/1986646378/plib_evsys.o
 .text          0x00000000        0x0 build/default/debug/_ext/1865468468/plib_nvic.o
 .data          0x00000000        0x0 build/default/debug/_ext/1865468468/plib_nvic.o
 .bss           0x00000000        0x0 build/default/debug/_ext/1865468468/plib_nvic.o
 .text.NVIC_INT_Enable
                0x00000000        0x8 build/default/debug/_ext/1865468468/plib_nvic.o
 .text.NVIC_INT_Disable
                0x00000000       0x12 build/default/debug/_ext/1865468468/plib_nvic.o
 .text.NVIC_INT_Restore
                0x00000000       0x12 build/default/debug/_ext/1865468468/plib_nvic.o
 .text.NVIC_INT_SourceDisable
                0x00000000       0x40 build/default/debug/_ext/1865468468/plib_nvic.o
 .text.NVIC_INT_SourceRestore
                0x00000000       0x20 build/default/debug/_ext/1865468468/plib_nvic.o
 .text          0x00000000        0x0 build/default/debug/_ext/1593096446/plib_nvmctrl.o
 .data          0x00000000        0x0 build/default/debug/_ext/1593096446/plib_nvmctrl.o
 .bss           0x00000000        0x0 build/default/debug/_ext/1593096446/plib_nvmctrl.o
 .text.NVMCTRL_CacheInvalidate
                0x00000000       0x14 build/default/debug/_ext/1593096446/plib_nvmctrl.o
 .text.NVMCTRL_Read
                0x00000000       0x10 build/default/debug/_ext/1593096446/plib_nvmctrl.o
 .text.NVMCTRL_PageWrite
                0x00000000       0x4c build/default/debug/_ext/1593096446/plib_nvmctrl.o
 .text.NVMCTRL_RowErase
                0x00000000       0x38 build/default/debug/_ext/1593096446/plib_nvmctrl.o
 .text.NVMCTRL_PageBufferWrite
                0x00000000       0x42 build/default/debug/_ext/1593096446/plib_nvmctrl.o
 .text.NVMCTRL_PageBufferCommit
                0x00000000       0x1c build/default/debug/_ext/1593096446/plib_nvmctrl.o
 .text.NVMCTRL_USER_ROW_PageWrite
                0x00000000       0x1e build/default/debug/_ext/1593096446/plib_nvmctrl.o
 .text.NVMCTRL_USER_ROW_RowErase
                0x00000000       0x22 build/default/debug/_ext/1593096446/plib_nvmctrl.o
 .text.NVMCTRL_BOCOR_ROW_PageWrite
                0x00000000       0x1e build/default/debug/_ext/1593096446/plib_nvmctrl.o
 .text.NVMCTRL_BOCOR_ROW_RowErase
                0x00000000       0x22 build/default/debug/_ext/1593096446/plib_nvmctrl.o
 .text.NVMCTRL_ErrorGet
                0x00000000       0x28 build/default/debug/_ext/1593096446/plib_nvmctrl.o
 .text.NVMCTRL_IsBusy
                0x00000000       0x16 build/default/debug/_ext/1593096446/plib_nvmctrl.o
 .text.NVMCTRL_RegionLock
                0x00000000       0x16 build/default/debug/_ext/1593096446/plib_nvmctrl.o
 .text.NVMCTRL_RegionUnlock
                0x00000000       0x16 build/default/debug/_ext/1593096446/plib_nvmctrl.o
 .text.NVMCTRL_SecureRegionLock
                0x00000000       0x16 build/default/debug/_ext/1593096446/plib_nvmctrl.o
 .text.NVMCTRL_SecureRegionUnlock
                0x00000000       0x16 build/default/debug/_ext/1593096446/plib_nvmctrl.o
 .text          0x00000000        0x0 build/default/debug/_ext/829342769/plib_pm.o
 .data          0x00000000        0x0 build/default/debug/_ext/829342769/plib_pm.o
 .bss           0x00000000        0x0 build/default/debug/_ext/829342769/plib_pm.o
 .text.PM_IdleModeEnter
                0x00000000       0x1e build/default/debug/_ext/829342769/plib_pm.o
 .text.PM_StandbyModeEnter
                0x00000000       0x1e build/default/debug/_ext/829342769/plib_pm.o
 .text.PM_OffModeEnter
                0x00000000       0x20 build/default/debug/_ext/829342769/plib_pm.o
 .text.PM_ConfigurePerformanceLevel
                0x00000000       0x50 build/default/debug/_ext/829342769/plib_pm.o
 .text          0x00000000        0x0 build/default/debug/_ext/1865521619/plib_port.o
 .data          0x00000000        0x0 build/default/debug/_ext/1865521619/plib_port.o
 .bss           0x00000000        0x0 build/default/debug/_ext/1865521619/plib_port.o
 .text.PORT_GroupRead
                0x00000000        0x4 build/default/debug/_ext/1865521619/plib_port.o
 .text.PORT_GroupWrite
                0x00000000        0xc build/default/debug/_ext/1865521619/plib_port.o
 .text.PORT_GroupLatchRead
                0x00000000        0x4 build/default/debug/_ext/1865521619/plib_port.o
 .text.PORT_GroupSet
                0x00000000        0x4 build/default/debug/_ext/1865521619/plib_port.o
 .text.PORT_GroupClear
                0x00000000        0x4 build/default/debug/_ext/1865521619/plib_port.o
 .text.PORT_GroupToggle
                0x00000000        0x4 build/default/debug/_ext/1865521619/plib_port.o
 .text.PORT_GroupInputEnable
                0x00000000       0x2a build/default/debug/_ext/1865521619/plib_port.o
 .text.PORT_GroupOutputEnable
                0x00000000        0x4 build/default/debug/_ext/1865521619/plib_port.o
 .text.PORT_PinPeripheralFunctionConfig
                0x00000000       0x4a build/default/debug/_ext/1865521619/plib_port.o
 .text.PORT_PinGPIOConfig
                0x00000000       0x20 build/default/debug/_ext/1865521619/plib_port.o
 .text          0x00000000        0x0 build/default/debug/_ext/1827571544/plib_systick.o
 .data          0x00000000        0x0 build/default/debug/_ext/1827571544/plib_systick.o
 .bss           0x00000000        0x0 build/default/debug/_ext/1827571544/plib_systick.o
 .text.SYSTICK_TimerRestart
                0x00000000       0x1c build/default/debug/_ext/1827571544/plib_systick.o
 .text.SYSTICK_TimerStop
                0x00000000       0x12 build/default/debug/_ext/1827571544/plib_systick.o
 .text.SYSTICK_TimerPeriodSet
                0x00000000        0xe build/default/debug/_ext/1827571544/plib_systick.o
 .text.SYSTICK_TimerPeriodGet
                0x00000000        0xc build/default/debug/_ext/1827571544/plib_systick.o
 .text.SYSTICK_TimerCounterGet
                0x00000000        0xc build/default/debug/_ext/1827571544/plib_systick.o
 .text.SYSTICK_TimerFrequencyGet
                0x00000000        0xa build/default/debug/_ext/1827571544/plib_systick.o
 .text.SYSTICK_DelayUs
                0x00000000       0x4a build/default/debug/_ext/1827571544/plib_systick.o
 .text.SYSTICK_GetTickCounter
                0x00000000        0xc build/default/debug/_ext/1827571544/plib_systick.o
 .text.SYSTICK_StartTimeOut
                0x00000000       0x22 build/default/debug/_ext/1827571544/plib_systick.o
 .text.SYSTICK_ResetTimeOut
                0x00000000        0xe build/default/debug/_ext/1827571544/plib_systick.o
 .text.SYSTICK_IsTimeoutReached
                0x00000000       0x1a build/default/debug/_ext/1827571544/plib_systick.o
 .text.SYSTICK_TimerCallbackSet
                0x00000000        0xe build/default/debug/_ext/1827571544/plib_systick.o
 .text          0x00000000        0x0 build/default/debug/_ext/163028504/xc32_monitor.o
 .data          0x00000000        0x0 build/default/debug/_ext/163028504/xc32_monitor.o
 .bss           0x00000000        0x0 build/default/debug/_ext/163028504/xc32_monitor.o
 .text.read     0x00000000        0x6 build/default/debug/_ext/163028504/xc32_monitor.o
 .text.write    0x00000000        0x6 build/default/debug/_ext/163028504/xc32_monitor.o
 .debug_info    0x00000000       0xf5 build/default/debug/_ext/163028504/xc32_monitor.o
 .debug_abbrev  0x00000000       0xb2 build/default/debug/_ext/163028504/xc32_monitor.o
 .debug_loc     0x00000000       0x56 build/default/debug/_ext/163028504/xc32_monitor.o
 .debug_aranges
                0x00000000       0x28 build/default/debug/_ext/163028504/xc32_monitor.o
 .debug_ranges  0x00000000       0x18 build/default/debug/_ext/163028504/xc32_monitor.o
 .debug_line    0x00000000       0xd9 build/default/debug/_ext/163028504/xc32_monitor.o
 .debug_str     0x00000000      0x287 build/default/debug/_ext/163028504/xc32_monitor.o
 .comment       0x00000000       0x36 build/default/debug/_ext/163028504/xc32_monitor.o
 .debug_frame   0x00000000       0x30 build/default/debug/_ext/163028504/xc32_monitor.o
 .ARM.attributes
                0x00000000       0x30 build/default/debug/_ext/163028504/xc32_monitor.o
 .text          0x00000000        0x0 build/default/debug/_ext/1171490990/initialization.o
 .data          0x00000000        0x0 build/default/debug/_ext/1171490990/initialization.o
 .bss           0x00000000        0x0 build/default/debug/_ext/1171490990/initialization.o
 .text          0x00000000        0x0 build/default/debug/_ext/1171490990/interrupts.o
 .data          0x00000000        0x0 build/default/debug/_ext/1171490990/interrupts.o
 .bss           0x00000000        0x0 build/default/debug/_ext/1171490990/interrupts.o
 .text          0x00000000        0x0 build/default/debug/_ext/1171490990/exceptions.o
 .data          0x00000000        0x0 build/default/debug/_ext/1171490990/exceptions.o
 .bss           0x00000000        0x0 build/default/debug/_ext/1171490990/exceptions.o
 .text          0x00000000        0x0 build/default/debug/_ext/1171490990/startup_xc32.o
 .data          0x00000000        0x0 build/default/debug/_ext/1171490990/startup_xc32.o
 .bss           0x00000000        0x0 build/default/debug/_ext/1171490990/startup_xc32.o
 .text          0x00000000        0x0 build/default/debug/_ext/1171490990/libc_syscalls.o
 .data          0x00000000        0x0 build/default/debug/_ext/1171490990/libc_syscalls.o
 .bss           0x00000000        0x0 build/default/debug/_ext/1171490990/libc_syscalls.o
 .text._exit    0x00000000        0x4 build/default/debug/_ext/1171490990/libc_syscalls.o
 .debug_info    0x00000000       0xa4 build/default/debug/_ext/1171490990/libc_syscalls.o
 .debug_abbrev  0x00000000       0x5a build/default/debug/_ext/1171490990/libc_syscalls.o
 .debug_aranges
                0x00000000       0x20 build/default/debug/_ext/1171490990/libc_syscalls.o
 .debug_ranges  0x00000000       0x10 build/default/debug/_ext/1171490990/libc_syscalls.o
 .debug_line    0x00000000       0x5f build/default/debug/_ext/1171490990/libc_syscalls.o
 .debug_str     0x00000000      0x2bb build/default/debug/_ext/1171490990/libc_syscalls.o
 .comment       0x00000000       0x36 build/default/debug/_ext/1171490990/libc_syscalls.o
 .debug_frame   0x00000000       0x20 build/default/debug/_ext/1171490990/libc_syscalls.o
 .ARM.attributes
                0x00000000       0x30 build/default/debug/_ext/1171490990/libc_syscalls.o
 .text          0x00000000        0x0 build/default/debug/_ext/1360937237/main.o
 .data          0x00000000        0x0 build/default/debug/_ext/1360937237/main.o
 .bss           0x00000000        0x0 build/default/debug/_ext/1360937237/main.o
 .text          0x00000000        0x0 C:/Program Files/Microchip/xc32/v5.00/bin/bin/../../lib/gcc/pic32c/13.2.1/../../../../pic32c/lib/thumb/v8-m.base/nofp\libpic32c.a(data_init.o)
 .data          0x00000000        0x0 C:/Program Files/Microchip/xc32/v5.00/bin/bin/../../lib/gcc/pic32c/13.2.1/../../../../pic32c/lib/thumb/v8-m.base/nofp\libpic32c.a(data_init.o)
 .xc_stack_usage
                0x00000000       0x68 C:/Program Files/Microchip/xc32/v5.00/bin/bin/../../lib/gcc/pic32c/13.2.1/../../../../pic32c/lib/thumb/v8-m.base/nofp\libpic32c.a(data_init.o)
 .xc_stack_usage.hdr
                0x00000000        0xe C:/Program Files/Microchip/xc32/v5.00/bin/bin/../../lib/gcc/pic32c/13.2.1/../../../../pic32c/lib/thumb/v8-m.base/nofp\libpic32c.a(data_init.o)
 .text          0x00000000        0x0 C:/Program Files/Microchip/xc32/v5.00/bin/bin/../../lib/gcc/pic32c/13.2.1/../../../../pic32c/lib/thumb/v8-m.base/nofp\libc-size-musl.a(memcpy.o)
 .data          0x00000000        0x0 C:/Program Files/Microchip/xc32/v5.00/bin/bin/../../lib/gcc/pic32c/13.2.1/../../../../pic32c/lib/thumb/v8-m.base/nofp\libc-size-musl.a(memcpy.o)
 .bss           0x00000000        0x0 C:/Program Files/Microchip/xc32/v5.00/bin/bin/../../lib/gcc/pic32c/13.2.1/../../../../pic32c/lib/thumb/v8-m.base/nofp\libc-size-musl.a(memcpy.o)
 .xc_stack_usage
                0x00000000       0x14 C:/Program Files/Microchip/xc32/v5.00/bin/bin/../../lib/gcc/pic32c/13.2.1/../../../../pic32c/lib/thumb/v8-m.base/nofp\libc-size-musl.a(memcpy.o)
 .text.memcpy   0x00000000       0x14 C:/Program Files/Microchip/xc32/v5.00/bin/bin/../../lib/gcc/pic32c/13.2.1/../../../../pic32c/lib/thumb/v8-m.base/nofp\libc-size-musl.a(memcpy.o)
 .xc_stack_usage.hdr
                0x00000000        0xe C:/Program Files/Microchip/xc32/v5.00/bin/bin/../../lib/gcc/pic32c/13.2.1/../../../../pic32c/lib/thumb/v8-m.base/nofp\libc-size-musl.a(memcpy.o)
 .debug_info    0x00000000       0xed C:/Program Files/Microchip/xc32/v5.00/bin/bin/../../lib/gcc/pic32c/13.2.1/../../../../pic32c/lib/thumb/v8-m.base/nofp\libc-size-musl.a(memcpy.o)
 .debug_abbrev  0x00000000       0xbb C:/Program Files/Microchip/xc32/v5.00/bin/bin/../../lib/gcc/pic32c/13.2.1/../../../../pic32c/lib/thumb/v8-m.base/nofp\libc-size-musl.a(memcpy.o)
 .debug_loc     0x00000000      0x12d C:/Program Files/Microchip/xc32/v5.00/bin/bin/../../lib/gcc/pic32c/13.2.1/../../../../pic32c/lib/thumb/v8-m.base/nofp\libc-size-musl.a(memcpy.o)
 .debug_aranges
                0x00000000       0x20 C:/Program Files/Microchip/xc32/v5.00/bin/bin/../../lib/gcc/pic32c/13.2.1/../../../../pic32c/lib/thumb/v8-m.base/nofp\libc-size-musl.a(memcpy.o)
 .debug_ranges  0x00000000       0x10 C:/Program Files/Microchip/xc32/v5.00/bin/bin/../../lib/gcc/pic32c/13.2.1/../../../../pic32c/lib/thumb/v8-m.base/nofp\libc-size-musl.a(memcpy.o)
 .debug_line    0x00000000      0x16c C:/Program Files/Microchip/xc32/v5.00/bin/bin/../../lib/gcc/pic32c/13.2.1/../../../../pic32c/lib/thumb/v8-m.base/nofp\libc-size-musl.a(memcpy.o)
 .debug_str     0x00000000      0x241 C:/Program Files/Microchip/xc32/v5.00/bin/bin/../../lib/gcc/pic32c/13.2.1/../../../../pic32c/lib/thumb/v8-m.base/nofp\libc-size-musl.a(memcpy.o)
 .comment       0x00000000       0x36 C:/Program Files/Microchip/xc32/v5.00/bin/bin/../../lib/gcc/pic32c/13.2.1/../../../../pic32c/lib/thumb/v8-m.base/nofp\libc-size-musl.a(memcpy.o)
 .note.GNU-stack
                0x00000000        0x0 C:/Program Files/Microchip/xc32/v5.00/bin/bin/../../lib/gcc/pic32c/13.2.1/../../../../pic32c/lib/thumb/v8-m.base/nofp\libc-size-musl.a(memcpy.o)
 .debug_frame   0x00000000       0x28 C:/Program Files/Microchip/xc32/v5.00/bin/bin/../../lib/gcc/pic32c/13.2.1/../../../../pic32c/lib/thumb/v8-m.base/nofp\libc-size-musl.a(memcpy.o)
 .ARM.attributes
                0x00000000       0x32 C:/Program Files/Microchip/xc32/v5.00/bin/bin/../../lib/gcc/pic32c/13.2.1/../../../../pic32c/lib/thumb/v8-m.base/nofp\libc-size-musl.a(memcpy.o)
 .text          0x00000000        0x0 C:/Program Files/Microchip/xc32/v5.00/bin/bin/../../lib/gcc/pic32c/13.2.1/../../../../pic32c/lib/thumb/v8-m.base/nofp\libg-musl.a(__libc_start_main.o)
 .data          0x00000000        0x0 C:/Program Files/Microchip/xc32/v5.00/bin/bin/../../lib/gcc/pic32c/13.2.1/../../../../pic32c/lib/thumb/v8-m.base/nofp\libg-musl.a(__libc_start_main.o)
 .bss           0x00000000        0x0 C:/Program Files/Microchip/xc32/v5.00/bin/bin/../../lib/gcc/pic32c/13.2.1/../../../../pic32c/lib/thumb/v8-m.base/nofp\libg-musl.a(__libc_start_main.o)
 .xc_stack_usage
                0x00000000       0x34 C:/Program Files/Microchip/xc32/v5.00/bin/bin/../../lib/gcc/pic32c/13.2.1/../../../../pic32c/lib/thumb/v8-m.base/nofp\libg-musl.a(__libc_start_main.o)
 .xc_stack_usage.hdr
                0x00000000        0xe C:/Program Files/Microchip/xc32/v5.00/bin/bin/../../lib/gcc/pic32c/13.2.1/../../../../pic32c/lib/thumb/v8-m.base/nofp\libg-musl.a(__libc_start_main.o)
 .text          0x00000000        0x0 C:/Program Files/Microchip/xc32/v5.00/bin/bin/../../lib/gcc/pic32c/13.2.1/../../../../pic32c/lib/thumb/v8-m.base/nofp\libg-musl.a(libc.o)
 .data          0x00000000        0x0 C:/Program Files/Microchip/xc32/v5.00/bin/bin/../../lib/gcc/pic32c/13.2.1/../../../../pic32c/lib/thumb/v8-m.base/nofp\libg-musl.a(libc.o)
 .xc_stack_usage.hdr
                0x00000000        0xe C:/Program Files/Microchip/xc32/v5.00/bin/bin/../../lib/gcc/pic32c/13.2.1/../../../../pic32c/lib/thumb/v8-m.base/nofp\libg-musl.a(libc.o)
 .text          0x00000000        0x0 C:/Program Files/Microchip/xc32/v5.00/bin/bin/../../lib/gcc/pic32c/13.2.1/../../../../pic32c/lib/thumb/v8-m.base/nofp\libg-musl.a(__environ.o)
 .data          0x00000000        0x0 C:/Program Files/Microchip/xc32/v5.00/bin/bin/../../lib/gcc/pic32c/13.2.1/../../../../pic32c/lib/thumb/v8-m.base/nofp\libg-musl.a(__environ.o)
 .xc_stack_usage.hdr
                0x00000000        0xe C:/Program Files/Microchip/xc32/v5.00/bin/bin/../../lib/gcc/pic32c/13.2.1/../../../../pic32c/lib/thumb/v8-m.base/nofp\libg-musl.a(__environ.o)
 .xc_stack_usage.hdr
                0x00000000        0xe C:/Program Files/Microchip/xc32/v5.00/bin/bin/../../lib/gcc/pic32c/13.2.1/../../../../pic32c/lib/thumb/v8-m.base/nofp\libm-fast-emfloat.a(__aeabi_fmul.o)
 .xc_stack_usage
                0x00000000       0x1a C:/Program Files/Microchip/xc32/v5.00/bin/bin/../../lib/gcc/pic32c/13.2.1/../../../../pic32c/lib/thumb/v8-m.base/nofp\libm-fast-emfloat.a(__aeabi_fmul.o)
 .xc_stack_usage.hdr
                0x00000000        0xe C:/Program Files/Microchip/xc32/v5.00/bin/bin/../../lib/gcc/pic32c/13.2.1/../../../../pic32c/lib/thumb/v8-m.base/nofp\libm-fast-emfloat.a(__aeabi_fdiv.o)
 .xc_stack_usage
                0x00000000       0x1a C:/Program Files/Microchip/xc32/v5.00/bin/bin/../../lib/gcc/pic32c/13.2.1/../../../../pic32c/lib/thumb/v8-m.base/nofp\libm-fast-emfloat.a(__aeabi_fdiv.o)
 .xc_stack_usage.hdr
                0x00000000        0xe C:/Program Files/Microchip/xc32/v5.00/bin/bin/../../lib/gcc/pic32c/13.2.1/../../../../pic32c/lib/thumb/v8-m.base/nofp\libm-fast-emfloat.a(__aeabi_ui2f.o)
 .xc_stack_usage
                0x00000000       0x1a C:/Program Files/Microchip/xc32/v5.00/bin/bin/../../lib/gcc/pic32c/13.2.1/../../../../pic32c/lib/thumb/v8-m.base/nofp\libm-fast-emfloat.a(__aeabi_ui2f.o)
 .text          0x00000000        0x0 C:/Program Files/Microchip/xc32/v5.00/bin/bin/../../lib/gcc/pic32c/13.2.1/thumb/v8-m.base/nofp/crtend.o
 .data          0x00000000        0x0 C:/Program Files/Microchip/xc32/v5.00/bin/bin/../../lib/gcc/pic32c/13.2.1/thumb/v8-m.base/nofp/crtend.o
 .bss           0x00000000        0x0 C:/Program Files/Microchip/xc32/v5.00/bin/bin/../../lib/gcc/pic32c/13.2.1/thumb/v8-m.base/nofp/crtend.o
 .rodata        0x00000000       0x24 C:/Program Files/Microchip/xc32/v5.00/bin/bin/../../lib/gcc/pic32c/13.2.1/thumb/v8-m.base/nofp/crtend.o
 .eh_frame      0x00000000        0x4 C:/Program Files/Microchip/xc32/v5.00/bin/bin/../../lib/gcc/pic32c/13.2.1/thumb/v8-m.base/nofp/crtend.o
 .xc_stack_usage.hdr
                0x00000000        0xe C:/Program Files/Microchip/xc32/v5.00/bin/bin/../../lib/gcc/pic32c/13.2.1/thumb/v8-m.base/nofp/crtend.o
 .comment       0x00000000       0x36 C:/Program Files/Microchip/xc32/v5.00/bin/bin/../../lib/gcc/pic32c/13.2.1/thumb/v8-m.base/nofp/crtend.o
 .ARM.attributes
                0x00000000       0x30 C:/Program Files/Microchip/xc32/v5.00/bin/bin/../../lib/gcc/pic32c/13.2.1/thumb/v8-m.base/nofp/crtend.o
 .text          0x00000000        0x0 C:/Program Files/Microchip/xc32/v5.00/bin/bin/../../lib/gcc/pic32c/13.2.1/thumb/v8-m.base/nofp/crtn.o
 .data          0x00000000        0x0 C:/Program Files/Microchip/xc32/v5.00/bin/bin/../../lib/gcc/pic32c/13.2.1/thumb/v8-m.base/nofp/crtn.o
 .bss           0x00000000        0x0 C:/Program Files/Microchip/xc32/v5.00/bin/bin/../../lib/gcc/pic32c/13.2.1/thumb/v8-m.base/nofp/crtn.o
 .xc_stack_usage.hdr
                0x00000000        0xe C:/Program Files/Microchip/xc32/v5.00/bin/bin/../../lib/gcc/pic32c/13.2.1/thumb/v8-m.base/nofp/crtn.o
 .text          0x00000000        0x0 C:/Program Files/Microchip/xc32/v5.00/bin/bin/../../lib/gcc/pic32c/13.2.1/../../../../pic32c/lib/thumb/v8-m.base/nofp\libpic32c.a(pic32_data_init_clear.o)
 .data          0x00000000        0x0 C:/Program Files/Microchip/xc32/v5.00/bin/bin/../../lib/gcc/pic32c/13.2.1/../../../../pic32c/lib/thumb/v8-m.base/nofp\libpic32c.a(pic32_data_init_clear.o)
 .bss           0x00000000        0x0 C:/Program Files/Microchip/xc32/v5.00/bin/bin/../../lib/gcc/pic32c/13.2.1/../../../../pic32c/lib/thumb/v8-m.base/nofp\libpic32c.a(pic32_data_init_clear.o)
 .xc_stack_usage
                0x00000000       0x1b C:/Program Files/Microchip/xc32/v5.00/bin/bin/../../lib/gcc/pic32c/13.2.1/../../../../pic32c/lib/thumb/v8-m.base/nofp\libpic32c.a(pic32_data_init_clear.o)
 .xc_stack_usage.hdr
                0x00000000        0xe C:/Program Files/Microchip/xc32/v5.00/bin/bin/../../lib/gcc/pic32c/13.2.1/../../../../pic32c/lib/thumb/v8-m.base/nofp\libpic32c.a(pic32_data_init_clear.o)
 .text          0x00000000        0x0 C:/Program Files/Microchip/xc32/v5.00/bin/bin/../../lib/gcc/pic32c/13.2.1/../../../../pic32c/lib/thumb/v8-m.base/nofp\libpic32c.a(pic32_data_init_copy.o)
 .data          0x00000000        0x0 C:/Program Files/Microchip/xc32/v5.00/bin/bin/../../lib/gcc/pic32c/13.2.1/../../../../pic32c/lib/thumb/v8-m.base/nofp\libpic32c.a(pic32_data_init_copy.o)
 .bss           0x00000000        0x0 C:/Program Files/Microchip/xc32/v5.00/bin/bin/../../lib/gcc/pic32c/13.2.1/../../../../pic32c/lib/thumb/v8-m.base/nofp\libpic32c.a(pic32_data_init_copy.o)
 .xc_stack_usage
                0x00000000       0x1a C:/Program Files/Microchip/xc32/v5.00/bin/bin/../../lib/gcc/pic32c/13.2.1/../../../../pic32c/lib/thumb/v8-m.base/nofp\libpic32c.a(pic32_data_init_copy.o)
 .xc_stack_usage.hdr
                0x00000000        0xe C:/Program Files/Microchip/xc32/v5.00/bin/bin/../../lib/gcc/pic32c/13.2.1/../../../../pic32c/lib/thumb/v8-m.base/nofp\libpic32c.a(pic32_data_init_copy.o)

Memory Configuration

Name             Origin             Length             Attributes
rom              0x00000000         0x00080000         xrl
ram              0x20000000         0x00010000         xw!r
config_00804000  0x00804000         0x00000004
config_00804004  0x00804004         0x00000004
*default*        0x00000000         0xffffffff

Linker script and memory map

LOAD C:/Program Files/Microchip/xc32/v5.00/bin/bin/../../lib/gcc/pic32c/13.2.1/thumb/v8-m.base/nofp/crti.o
LOAD C:/Program Files/Microchip/xc32/v5.00/bin/bin/../../lib/gcc/pic32c/13.2.1/thumb/v8-m.base/nofp/crtbegin.o
LOAD build/default/debug/_ext/60163342/plib_adc.o
LOAD build/default/debug/_ext/1984496892/plib_clock.o
LOAD build/default/debug/_ext/1986646378/plib_evsys.o
LOAD build/default/debug/_ext/1865468468/plib_nvic.o
LOAD build/default/debug/_ext/1593096446/plib_nvmctrl.o
LOAD build/default/debug/_ext/829342769/plib_pm.o
LOAD build/default/debug/_ext/1865521619/plib_port.o
LOAD build/default/debug/_ext/1827571544/plib_systick.o
LOAD build/default/debug/_ext/163028504/xc32_monitor.o
LOAD build/default/debug/_ext/1171490990/initialization.o
LOAD build/default/debug/_ext/1171490990/interrupts.o
LOAD build/default/debug/_ext/1171490990/exceptions.o
LOAD build/default/debug/_ext/1171490990/startup_xc32.o
LOAD build/default/debug/_ext/1171490990/libc_syscalls.o
LOAD build/default/debug/_ext/1360937237/main.o
                0x00000001                        __MPLAB_BUILD = 0x1
                0x00080000                        __rom_end = (ORIGIN (rom) + LENGTH (rom))
                0x20010000                        __ram_end = (ORIGIN (ram) + LENGTH (ram))

.config_00804000
                0x00804000        0x4
 *(.config_00804000)
 .config_00804000
                0x00804000        0x4 build/default/debug/_ext/1171490990/initialization.o
                0x00804000                __config_00804000

.config_00804004
                0x00804004        0x4
 *(.config_00804004)
 .config_00804004
                0x00804004        0x4 build/default/debug/_ext/1171490990/initialization.o
                0x00804004                __config_00804004

.vectors        0x00000000      0x15c
                0x00000000                        . = ALIGN (0x4)
                0x00000000                        _sfixed = .
 *(.vectors .vectors.* .vectors_default .vectors_default.*)
 .vectors       0x00000000      0x15c build/default/debug/_ext/1171490990/interrupts.o
                0x00000000                exception_table
 *(.isr_vector)
 *(.reset*)
 *(.after_vectors)

.text           0x0000015c       0x20
                0x0000015c                        . = ALIGN (0x4)
 *(.glue_7t)
 .glue_7t       0x0000015c        0x0 linker stubs
 *(.glue_7)
 .glue_7        0x0000015c        0x0 linker stubs
 *(.gnu.linkonce.r.*)
 *(.ARM.extab* .gnu.linkonce.armextab.*)
                0x0000015c                        . = ALIGN (0x4)
 *(.init)
 .init          0x0000015c        0x4 C:/Program Files/Microchip/xc32/v5.00/bin/bin/../../lib/gcc/pic32c/13.2.1/thumb/v8-m.base/nofp/crti.o
                0x0000015c                _init
 .init          0x00000160        0x8 C:/Program Files/Microchip/xc32/v5.00/bin/bin/../../lib/gcc/pic32c/13.2.1/thumb/v8-m.base/nofp/crtn.o
                0x00000168                        . = ALIGN (0x4)
                0x00000168                        __preinit_array_start = .
 *(.preinit_array)
                0x00000168                        __preinit_array_end = .
                0x00000168                        . = ALIGN (0x4)
                0x00000168                        __init_array_start = .
 *(SORT_BY_NAME(.init_array.*))
 *(.init_array)
 .init_array    0x00000168        0x4 C:/Program Files/Microchip/xc32/v5.00/bin/bin/../../lib/gcc/pic32c/13.2.1/thumb/v8-m.base/nofp/crtbegin.o
                0x0000016c                        __init_array_end = .
                0x0000016c                        . = ALIGN (0x4)
 *crtbegin.o(.ctors)
 *(EXCLUDE_FILE(*crtend.o) .ctors)
 *(SORT_BY_NAME(.ctors.*))
 *crtend.o(.ctors)
                0x0000016c                        . = ALIGN (0x4)
 *(.fini)
 .fini          0x0000016c        0x4 C:/Program Files/Microchip/xc32/v5.00/bin/bin/../../lib/gcc/pic32c/13.2.1/thumb/v8-m.base/nofp/crti.o
                0x0000016c                _fini
 .fini          0x00000170        0x8 C:/Program Files/Microchip/xc32/v5.00/bin/bin/../../lib/gcc/pic32c/13.2.1/thumb/v8-m.base/nofp/crtn.o
                0x00000178                        . = ALIGN (0x4)
                0x00000178                        __fini_array_start = .
 *(.fini_array)
 .fini_array    0x00000178        0x4 C:/Program Files/Microchip/xc32/v5.00/bin/bin/../../lib/gcc/pic32c/13.2.1/thumb/v8-m.base/nofp/crtbegin.o
 *(SORT_BY_NAME(.fini_array.*))
                0x0000017c                        __fini_array_end = .
 *crtbegin.o(.dtors)
 *(EXCLUDE_FILE(*crtend.o) .dtors)
 *(SORT_BY_NAME(.dtors.*))
 *crtend.o(.dtors)
                0x0000017c                        . = ALIGN (0x4)
                0x0000017c                        _efixed = .
                [!provide]                        PROVIDE (__exidx_start = .)

.ARM.exidx
 *(.ARM.exidx* .gnu.linkonce.armexidx.*)
                [!provide]                        PROVIDE (__exidx_end = .)
                0x0000017c                        . = ALIGN (0x4)
                0x0000017c                        _etext = .

.bss            0x20000000        0x0
                0x20000000                        . = ALIGN (0x4)
                0x20000000                        __bss_start__ = .
                0x20000000                        _sbss = .
                0x20000000                        _szero = .
 *(COMMON)
                0x20000000                        . = ALIGN (0x4)
                0x20000000                        __bss_end__ = .
                0x20000000                        _ebss = .
                0x20000000                        _ezero = .
                0x20000000                        . = ALIGN (0x4)
                0x20000000                        _end = .
                0x2000ffff                        _ram_end_ = ((ORIGIN (ram) + LENGTH (ram)) - 0x1)
                0x00000001                        __ICD2RAM = 0x1
                0x00000001                        __MPLAB_DEBUG = 0x1
                0x00000001                        __DEBUG = 0x1
                0x00000200                        _min_heap_size = 0x200
START GROUP
LOAD C:/Program Files/Microchip/xc32/v5.00/bin/bin/../../lib/gcc/pic32c/13.2.1/../../../../pic32c/lib/thumb/v8-m.base/nofp\libpic32c.a
LOAD C:/Program Files/Microchip/xc32/v5.00/bin/bin/../../lib/gcc/pic32c/13.2.1/../../../../pic32c/lib/thumb/v8-m.base/nofp\libc-size-musl.a
LOAD C:/Program Files/Microchip/xc32/v5.00/bin/bin/../../lib/gcc/pic32c/13.2.1/../../../../pic32c/lib/thumb/v8-m.base/nofp\liblmalloc-musl.a
LOAD C:/Program Files/Microchip/xc32/v5.00/bin/bin/../../lib/gcc/pic32c/13.2.1/../../../../pic32c/lib/thumb/v8-m.base/nofp\libg-musl.a
LOAD C:/Program Files/Microchip/xc32/v5.00/bin/bin/../../lib/gcc/pic32c/13.2.1/../../../../pic32c/lib/thumb/v8-m.base/nofp\libc-musl.a
LOAD C:/Program Files/Microchip/xc32/v5.00/bin/bin/../../lib/gcc/pic32c/13.2.1/../../../../pic32c/lib/thumb/v8-m.base/nofp\libm-fast-emfloat.a
LOAD C:/Program Files/Microchip/xc32/v5.00/bin/bin/../../lib/gcc/pic32c/13.2.1/../../../../pic32c/lib/thumb/v8-m.base/nofp\libm-musl.a
END GROUP
LOAD C:/Program Files/Microchip/xc32/v5.00/bin/bin/../../lib/gcc/pic32c/13.2.1/thumb/v8-m.base/nofp\libgcc.a
LOAD C:/Program Files/Microchip/xc32/v5.00/bin/bin/../../lib/gcc/pic32c/13.2.1/thumb/v8-m.base/nofp/crtend.o
LOAD C:/Program Files/Microchip/xc32/v5.00/bin/bin/../../lib/gcc/pic32c/13.2.1/thumb/v8-m.base/nofp/crtn.o
OUTPUT(dist/default/debug/_ADC.X.debug.elf elf32-littlearm)
LOAD linker stubs
LOAD data_init

.note           0x00000000      0x3c0
 .note          0x00000000       0x18 C:/Program Files/Microchip/xc32/v5.00/bin/bin/../../lib/gcc/pic32c/13.2.1/thumb/v8-m.base/nofp/crti.o
 .note          0x00000018       0x18 C:/Program Files/Microchip/xc32/v5.00/bin/bin/../../lib/gcc/pic32c/13.2.1/thumb/v8-m.base/nofp/crtbegin.o
 .note          0x00000030       0x18 build/default/debug/_ext/60163342/plib_adc.o
 .note          0x00000048       0x18 build/default/debug/_ext/1984496892/plib_clock.o
 .note          0x00000060       0x18 build/default/debug/_ext/1986646378/plib_evsys.o
 .note          0x00000078       0x18 build/default/debug/_ext/1865468468/plib_nvic.o
 .note          0x00000090       0x18 build/default/debug/_ext/1593096446/plib_nvmctrl.o
 .note          0x000000a8       0x18 build/default/debug/_ext/829342769/plib_pm.o
 .note          0x000000c0       0x18 build/default/debug/_ext/1865521619/plib_port.o
 .note          0x000000d8       0x18 build/default/debug/_ext/1827571544/plib_systick.o
 .note          0x000000f0       0x18 build/default/debug/_ext/163028504/xc32_monitor.o
 .note          0x00000108      0x168 build/default/debug/_ext/1171490990/initialization.o
 .note          0x00000270       0x18 build/default/debug/_ext/1171490990/interrupts.o
 .note          0x00000288       0x18 build/default/debug/_ext/1171490990/exceptions.o
 .note          0x000002a0       0x18 build/default/debug/_ext/1171490990/startup_xc32.o
 .note          0x000002b8       0x18 build/default/debug/_ext/1171490990/libc_syscalls.o
 .note          0x000002d0       0x18 build/default/debug/_ext/1360937237/main.o
 .note          0x000002e8       0x18 C:/Program Files/Microchip/xc32/v5.00/bin/bin/../../lib/gcc/pic32c/13.2.1/../../../../pic32c/lib/thumb/v8-m.base/nofp\libpic32c.a(data_init.o)
 .note          0x00000300       0x18 C:/Program Files/Microchip/xc32/v5.00/bin/bin/../../lib/gcc/pic32c/13.2.1/../../../../pic32c/lib/thumb/v8-m.base/nofp\libc-size-musl.a(memcpy.o)
 .note          0x00000318       0x18 C:/Program Files/Microchip/xc32/v5.00/bin/bin/../../lib/gcc/pic32c/13.2.1/../../../../pic32c/lib/thumb/v8-m.base/nofp\libg-musl.a(__libc_start_main.o)
 .note          0x00000330       0x18 C:/Program Files/Microchip/xc32/v5.00/bin/bin/../../lib/gcc/pic32c/13.2.1/../../../../pic32c/lib/thumb/v8-m.base/nofp\libg-musl.a(libc.o)
 .note          0x00000348       0x18 C:/Program Files/Microchip/xc32/v5.00/bin/bin/../../lib/gcc/pic32c/13.2.1/../../../../pic32c/lib/thumb/v8-m.base/nofp\libg-musl.a(__environ.o)
 .note          0x00000360       0x18 C:/Program Files/Microchip/xc32/v5.00/bin/bin/../../lib/gcc/pic32c/13.2.1/thumb/v8-m.base/nofp/crtend.o
 .note          0x00000378       0x18 C:/Program Files/Microchip/xc32/v5.00/bin/bin/../../lib/gcc/pic32c/13.2.1/thumb/v8-m.base/nofp/crtn.o
 .note          0x00000390       0x18 C:/Program Files/Microchip/xc32/v5.00/bin/bin/../../lib/gcc/pic32c/13.2.1/../../../../pic32c/lib/thumb/v8-m.base/nofp\libpic32c.a(pic32_data_init_clear.o)
 .note          0x000003a8       0x18 C:/Program Files/Microchip/xc32/v5.00/bin/bin/../../lib/gcc/pic32c/13.2.1/../../../../pic32c/lib/thumb/v8-m.base/nofp\libpic32c.a(pic32_data_init_copy.o)

.ARM.attributes
                0x00000000       0x2e
 .ARM.attributes
                0x00000000       0x22 C:/Program Files/Microchip/xc32/v5.00/bin/bin/../../lib/gcc/pic32c/13.2.1/thumb/v8-m.base/nofp/crti.o
 .ARM.attributes
                0x00000022       0x30 C:/Program Files/Microchip/xc32/v5.00/bin/bin/../../lib/gcc/pic32c/13.2.1/thumb/v8-m.base/nofp/crtbegin.o
 .ARM.attributes
                0x00000052       0x30 build/default/debug/_ext/60163342/plib_adc.o
 .ARM.attributes
                0x00000082       0x30 build/default/debug/_ext/1984496892/plib_clock.o
 .ARM.attributes
                0x000000b2       0x30 build/default/debug/_ext/1986646378/plib_evsys.o
 .ARM.attributes
                0x000000e2       0x30 build/default/debug/_ext/1865468468/plib_nvic.o
 .ARM.attributes
                0x00000112       0x30 build/default/debug/_ext/1593096446/plib_nvmctrl.o
 .ARM.attributes
                0x00000142       0x30 build/default/debug/_ext/829342769/plib_pm.o
 .ARM.attributes
                0x00000172       0x30 build/default/debug/_ext/1865521619/plib_port.o
 .ARM.attributes
                0x000001a2       0x30 build/default/debug/_ext/1827571544/plib_systick.o
 .ARM.attributes
                0x000001d2       0x30 build/default/debug/_ext/1171490990/initialization.o
 .ARM.attributes
                0x00000202       0x30 build/default/debug/_ext/1171490990/interrupts.o
 .ARM.attributes
                0x00000232       0x30 build/default/debug/_ext/1171490990/exceptions.o
 .ARM.attributes
                0x00000262       0x30 build/default/debug/_ext/1171490990/startup_xc32.o
 .ARM.attributes
                0x00000292       0x30 build/default/debug/_ext/1360937237/main.o
 .ARM.attributes
                0x000002c2       0x30 C:/Program Files/Microchip/xc32/v5.00/bin/bin/../../lib/gcc/pic32c/13.2.1/../../../../pic32c/lib/thumb/v8-m.base/nofp\libpic32c.a(data_init.o)
 .ARM.attributes
                0x000002f2       0x32 C:/Program Files/Microchip/xc32/v5.00/bin/bin/../../lib/gcc/pic32c/13.2.1/../../../../pic32c/lib/thumb/v8-m.base/nofp\libg-musl.a(__libc_start_main.o)
 .ARM.attributes
                0x00000324       0x32 C:/Program Files/Microchip/xc32/v5.00/bin/bin/../../lib/gcc/pic32c/13.2.1/../../../../pic32c/lib/thumb/v8-m.base/nofp\libg-musl.a(libc.o)
 .ARM.attributes
                0x00000356       0x32 C:/Program Files/Microchip/xc32/v5.00/bin/bin/../../lib/gcc/pic32c/13.2.1/../../../../pic32c/lib/thumb/v8-m.base/nofp\libg-musl.a(__environ.o)
 .ARM.attributes
                0x00000388       0x20 C:/Program Files/Microchip/xc32/v5.00/bin/bin/../../lib/gcc/pic32c/13.2.1/../../../../pic32c/lib/thumb/v8-m.base/nofp\libm-fast-emfloat.a(__aeabi_fmul.o)
 .ARM.attributes
                0x000003a8       0x20 C:/Program Files/Microchip/xc32/v5.00/bin/bin/../../lib/gcc/pic32c/13.2.1/../../../../pic32c/lib/thumb/v8-m.base/nofp\libm-fast-emfloat.a(__aeabi_fdiv.o)
 .ARM.attributes
                0x000003c8       0x20 C:/Program Files/Microchip/xc32/v5.00/bin/bin/../../lib/gcc/pic32c/13.2.1/../../../../pic32c/lib/thumb/v8-m.base/nofp\libm-fast-emfloat.a(__aeabi_ui2f.o)
 .ARM.attributes
                0x000003e8       0x22 C:/Program Files/Microchip/xc32/v5.00/bin/bin/../../lib/gcc/pic32c/13.2.1/thumb/v8-m.base/nofp/crtn.o
 .ARM.attributes
                0x0000040a       0x30 C:/Program Files/Microchip/xc32/v5.00/bin/bin/../../lib/gcc/pic32c/13.2.1/../../../../pic32c/lib/thumb/v8-m.base/nofp\libpic32c.a(pic32_data_init_clear.o)
 .ARM.attributes
                0x0000043a       0x30 C:/Program Files/Microchip/xc32/v5.00/bin/bin/../../lib/gcc/pic32c/13.2.1/../../../../pic32c/lib/thumb/v8-m.base/nofp\libpic32c.a(pic32_data_init_copy.o)

.comment        0x00000000       0x35
 .comment       0x00000000       0x35 C:/Program Files/Microchip/xc32/v5.00/bin/bin/../../lib/gcc/pic32c/13.2.1/thumb/v8-m.base/nofp/crtbegin.o
                                 0x36 (size before relaxing)
 .comment       0x00000035       0x36 build/default/debug/_ext/60163342/plib_adc.o
 .comment       0x00000035       0x36 build/default/debug/_ext/1984496892/plib_clock.o
 .comment       0x00000035       0x36 build/default/debug/_ext/1986646378/plib_evsys.o
 .comment       0x00000035       0x36 build/default/debug/_ext/1865468468/plib_nvic.o
 .comment       0x00000035       0x36 build/default/debug/_ext/1593096446/plib_nvmctrl.o
 .comment       0x00000035       0x36 build/default/debug/_ext/829342769/plib_pm.o
 .comment       0x00000035       0x36 build/default/debug/_ext/1865521619/plib_port.o
 .comment       0x00000035       0x36 build/default/debug/_ext/1827571544/plib_systick.o
 .comment       0x00000035       0x36 build/default/debug/_ext/1171490990/initialization.o
 .comment       0x00000035       0x36 build/default/debug/_ext/1171490990/interrupts.o
 .comment       0x00000035       0x36 build/default/debug/_ext/1171490990/exceptions.o
 .comment       0x00000035       0x36 build/default/debug/_ext/1171490990/startup_xc32.o
 .comment       0x00000035       0x36 build/default/debug/_ext/1360937237/main.o
 .comment       0x00000035       0x36 C:/Program Files/Microchip/xc32/v5.00/bin/bin/../../lib/gcc/pic32c/13.2.1/../../../../pic32c/lib/thumb/v8-m.base/nofp\libpic32c.a(data_init.o)
 .comment       0x00000035       0x36 C:/Program Files/Microchip/xc32/v5.00/bin/bin/../../lib/gcc/pic32c/13.2.1/../../../../pic32c/lib/thumb/v8-m.base/nofp\libg-musl.a(__libc_start_main.o)
 .comment       0x00000035       0x36 C:/Program Files/Microchip/xc32/v5.00/bin/bin/../../lib/gcc/pic32c/13.2.1/../../../../pic32c/lib/thumb/v8-m.base/nofp\libg-musl.a(libc.o)
 .comment       0x00000035       0x36 C:/Program Files/Microchip/xc32/v5.00/bin/bin/../../lib/gcc/pic32c/13.2.1/../../../../pic32c/lib/thumb/v8-m.base/nofp\libg-musl.a(__environ.o)
 .comment       0x00000035       0x36 C:/Program Files/Microchip/xc32/v5.00/bin/bin/../../lib/gcc/pic32c/13.2.1/../../../../pic32c/lib/thumb/v8-m.base/nofp\libpic32c.a(pic32_data_init_clear.o)
 .comment       0x00000035       0x36 C:/Program Files/Microchip/xc32/v5.00/bin/bin/../../lib/gcc/pic32c/13.2.1/../../../../pic32c/lib/thumb/v8-m.base/nofp\libpic32c.a(pic32_data_init_copy.o)

.debug_info     0x00000000     0x457e
 .debug_info    0x00000000      0x67f build/default/debug/_ext/60163342/plib_adc.o
 .debug_info    0x0000067f      0x6b7 build/default/debug/_ext/1984496892/plib_clock.o
 .debug_info    0x00000d36       0x9b build/default/debug/_ext/1986646378/plib_evsys.o
 .debug_info    0x00000dd1      0x759 build/default/debug/_ext/1865468468/plib_nvic.o
 .debug_info    0x0000152a      0x807 build/default/debug/_ext/1593096446/plib_nvmctrl.o
 .debug_info    0x00001d31      0x236 build/default/debug/_ext/829342769/plib_pm.o
 .debug_info    0x00001f67      0x78d build/default/debug/_ext/1865521619/plib_port.o
 .debug_info    0x000026f4      0x54b build/default/debug/_ext/1827571544/plib_systick.o
 .debug_info    0x00002c3f      0x397 build/default/debug/_ext/1171490990/initialization.o
 .debug_info    0x00002fd6      0x6a1 build/default/debug/_ext/1171490990/interrupts.o
 .debug_info    0x00003677       0xb3 build/default/debug/_ext/1171490990/exceptions.o
 .debug_info    0x0000372a      0x200 build/default/debug/_ext/1171490990/startup_xc32.o
 .debug_info    0x0000392a      0x1f7 build/default/debug/_ext/1360937237/main.o
 .debug_info    0x00003b21      0x212 C:/Program Files/Microchip/xc32/v5.00/bin/bin/../../lib/gcc/pic32c/13.2.1/../../../../pic32c/lib/thumb/v8-m.base/nofp\libpic32c.a(data_init.o)
 .debug_info    0x00003d33      0x2fb C:/Program Files/Microchip/xc32/v5.00/bin/bin/../../lib/gcc/pic32c/13.2.1/../../../../pic32c/lib/thumb/v8-m.base/nofp\libg-musl.a(__libc_start_main.o)
 .debug_info    0x0000402e      0x276 C:/Program Files/Microchip/xc32/v5.00/bin/bin/../../lib/gcc/pic32c/13.2.1/../../../../pic32c/lib/thumb/v8-m.base/nofp\libg-musl.a(libc.o)
 .debug_info    0x000042a4       0x97 C:/Program Files/Microchip/xc32/v5.00/bin/bin/../../lib/gcc/pic32c/13.2.1/../../../../pic32c/lib/thumb/v8-m.base/nofp\libg-musl.a(__environ.o)
 .debug_info    0x0000433b      0x117 C:/Program Files/Microchip/xc32/v5.00/bin/bin/../../lib/gcc/pic32c/13.2.1/../../../../pic32c/lib/thumb/v8-m.base/nofp\libpic32c.a(pic32_data_init_clear.o)
 .debug_info    0x00004452      0x12c C:/Program Files/Microchip/xc32/v5.00/bin/bin/../../lib/gcc/pic32c/13.2.1/../../../../pic32c/lib/thumb/v8-m.base/nofp\libpic32c.a(pic32_data_init_copy.o)

.debug_abbrev   0x00000000     0x1571
 .debug_abbrev  0x00000000      0x172 build/default/debug/_ext/60163342/plib_adc.o
 .debug_abbrev  0x00000172      0x142 build/default/debug/_ext/1984496892/plib_clock.o
 .debug_abbrev  0x000002b4       0x46 build/default/debug/_ext/1986646378/plib_evsys.o
 .debug_abbrev  0x000002fa      0x236 build/default/debug/_ext/1865468468/plib_nvic.o
 .debug_abbrev  0x00000530      0x1ee build/default/debug/_ext/1593096446/plib_nvmctrl.o
 .debug_abbrev  0x0000071e      0x106 build/default/debug/_ext/829342769/plib_pm.o
 .debug_abbrev  0x00000824      0x206 build/default/debug/_ext/1865521619/plib_port.o
 .debug_abbrev  0x00000a2a      0x1ef build/default/debug/_ext/1827571544/plib_systick.o
 .debug_abbrev  0x00000c19       0xf0 build/default/debug/_ext/1171490990/initialization.o
 .debug_abbrev  0x00000d09       0xd3 build/default/debug/_ext/1171490990/interrupts.o
 .debug_abbrev  0x00000ddc       0x49 build/default/debug/_ext/1171490990/exceptions.o
 .debug_abbrev  0x00000e25      0x12c build/default/debug/_ext/1171490990/startup_xc32.o
 .debug_abbrev  0x00000f51      0x103 build/default/debug/_ext/1360937237/main.o
 .debug_abbrev  0x00001054      0x156 C:/Program Files/Microchip/xc32/v5.00/bin/bin/../../lib/gcc/pic32c/13.2.1/../../../../pic32c/lib/thumb/v8-m.base/nofp\libpic32c.a(data_init.o)
 .debug_abbrev  0x000011aa      0x133 C:/Program Files/Microchip/xc32/v5.00/bin/bin/../../lib/gcc/pic32c/13.2.1/../../../../pic32c/lib/thumb/v8-m.base/nofp\libg-musl.a(__libc_start_main.o)
 .debug_abbrev  0x000012dd       0xd4 C:/Program Files/Microchip/xc32/v5.00/bin/bin/../../lib/gcc/pic32c/13.2.1/../../../../pic32c/lib/thumb/v8-m.base/nofp\libg-musl.a(libc.o)
 .debug_abbrev  0x000013b1       0x62 C:/Program Files/Microchip/xc32/v5.00/bin/bin/../../lib/gcc/pic32c/13.2.1/../../../../pic32c/lib/thumb/v8-m.base/nofp\libg-musl.a(__environ.o)
 .debug_abbrev  0x00001413       0xa5 C:/Program Files/Microchip/xc32/v5.00/bin/bin/../../lib/gcc/pic32c/13.2.1/../../../../pic32c/lib/thumb/v8-m.base/nofp\libpic32c.a(pic32_data_init_clear.o)
 .debug_abbrev  0x000014b8       0xb9 C:/Program Files/Microchip/xc32/v5.00/bin/bin/../../lib/gcc/pic32c/13.2.1/../../../../pic32c/lib/thumb/v8-m.base/nofp\libpic32c.a(pic32_data_init_copy.o)

.debug_loc      0x00000000     0x147d
 .debug_loc     0x00000000      0x194 build/default/debug/_ext/60163342/plib_adc.o
 .debug_loc     0x00000194       0x20 build/default/debug/_ext/1984496892/plib_clock.o
 .debug_loc     0x000001b4      0x13d build/default/debug/_ext/1865468468/plib_nvic.o
 .debug_loc     0x000002f1      0x627 build/default/debug/_ext/1593096446/plib_nvmctrl.o
 .debug_loc     0x00000918       0x69 build/default/debug/_ext/829342769/plib_pm.o
 .debug_loc     0x00000981      0x2b8 build/default/debug/_ext/1865521619/plib_port.o
 .debug_loc     0x00000c39      0x3ba build/default/debug/_ext/1827571544/plib_systick.o
 .debug_loc     0x00000ff3       0x4b build/default/debug/_ext/1171490990/initialization.o
 .debug_loc     0x0000103e       0x20 build/default/debug/_ext/1171490990/startup_xc32.o
 .debug_loc     0x0000105e       0x20 build/default/debug/_ext/1360937237/main.o
 .debug_loc     0x0000107e      0x113 C:/Program Files/Microchip/xc32/v5.00/bin/bin/../../lib/gcc/pic32c/13.2.1/../../../../pic32c/lib/thumb/v8-m.base/nofp\libpic32c.a(data_init.o)
 .debug_loc     0x00001191       0x5e C:/Program Files/Microchip/xc32/v5.00/bin/bin/../../lib/gcc/pic32c/13.2.1/../../../../pic32c/lib/thumb/v8-m.base/nofp\libg-musl.a(__libc_start_main.o)
 .debug_loc     0x000011ef       0xf7 C:/Program Files/Microchip/xc32/v5.00/bin/bin/../../lib/gcc/pic32c/13.2.1/../../../../pic32c/lib/thumb/v8-m.base/nofp\libpic32c.a(pic32_data_init_clear.o)
 .debug_loc     0x000012e6      0x197 C:/Program Files/Microchip/xc32/v5.00/bin/bin/../../lib/gcc/pic32c/13.2.1/../../../../pic32c/lib/thumb/v8-m.base/nofp\libpic32c.a(pic32_data_init_copy.o)

.debug_aranges  0x00000000      0x468
 .debug_aranges
                0x00000000       0x80 build/default/debug/_ext/60163342/plib_adc.o
 .debug_aranges
                0x00000080       0x20 build/default/debug/_ext/1984496892/plib_clock.o
 .debug_aranges
                0x000000a0       0x20 build/default/debug/_ext/1986646378/plib_evsys.o
 .debug_aranges
                0x000000c0       0x48 build/default/debug/_ext/1865468468/plib_nvic.o
 .debug_aranges
                0x00000108       0xa0 build/default/debug/_ext/1593096446/plib_nvmctrl.o
 .debug_aranges
                0x000001a8       0x40 build/default/debug/_ext/829342769/plib_pm.o
 .debug_aranges
                0x000001e8       0x70 build/default/debug/_ext/1865521619/plib_port.o
 .debug_aranges
                0x00000258       0x98 build/default/debug/_ext/1827571544/plib_systick.o
 .debug_aranges
                0x000002f0       0x20 build/default/debug/_ext/1171490990/initialization.o
 .debug_aranges
                0x00000310       0x20 build/default/debug/_ext/1171490990/interrupts.o
 .debug_aranges
                0x00000330       0x28 build/default/debug/_ext/1171490990/exceptions.o
 .debug_aranges
                0x00000358       0x28 build/default/debug/_ext/1171490990/startup_xc32.o
 .debug_aranges
                0x00000380       0x20 build/default/debug/_ext/1360937237/main.o
 .debug_aranges
                0x000003a0       0x30 C:/Program Files/Microchip/xc32/v5.00/bin/bin/../../lib/gcc/pic32c/13.2.1/../../../../pic32c/lib/thumb/v8-m.base/nofp\libpic32c.a(data_init.o)
 .debug_aranges
                0x000003d0       0x28 C:/Program Files/Microchip/xc32/v5.00/bin/bin/../../lib/gcc/pic32c/13.2.1/../../../../pic32c/lib/thumb/v8-m.base/nofp\libg-musl.a(__libc_start_main.o)
 .debug_aranges
                0x000003f8       0x18 C:/Program Files/Microchip/xc32/v5.00/bin/bin/../../lib/gcc/pic32c/13.2.1/../../../../pic32c/lib/thumb/v8-m.base/nofp\libg-musl.a(libc.o)
 .debug_aranges
                0x00000410       0x18 C:/Program Files/Microchip/xc32/v5.00/bin/bin/../../lib/gcc/pic32c/13.2.1/../../../../pic32c/lib/thumb/v8-m.base/nofp\libg-musl.a(__environ.o)
 .debug_aranges
                0x00000428       0x20 C:/Program Files/Microchip/xc32/v5.00/bin/bin/../../lib/gcc/pic32c/13.2.1/../../../../pic32c/lib/thumb/v8-m.base/nofp\libpic32c.a(pic32_data_init_clear.o)
 .debug_aranges
                0x00000448       0x20 C:/Program Files/Microchip/xc32/v5.00/bin/bin/../../lib/gcc/pic32c/13.2.1/../../../../pic32c/lib/thumb/v8-m.base/nofp\libpic32c.a(pic32_data_init_copy.o)

.debug_ranges   0x00000000      0x360
 .debug_ranges  0x00000000       0x70 build/default/debug/_ext/60163342/plib_adc.o
 .debug_ranges  0x00000070       0x10 build/default/debug/_ext/1984496892/plib_clock.o
 .debug_ranges  0x00000080       0x10 build/default/debug/_ext/1986646378/plib_evsys.o
 .debug_ranges  0x00000090       0x50 build/default/debug/_ext/1865468468/plib_nvic.o
 .debug_ranges  0x000000e0       0x90 build/default/debug/_ext/1593096446/plib_nvmctrl.o
 .debug_ranges  0x00000170       0x30 build/default/debug/_ext/829342769/plib_pm.o
 .debug_ranges  0x000001a0       0x60 build/default/debug/_ext/1865521619/plib_port.o
 .debug_ranges  0x00000200       0x88 build/default/debug/_ext/1827571544/plib_systick.o
 .debug_ranges  0x00000288       0x10 build/default/debug/_ext/1171490990/initialization.o
 .debug_ranges  0x00000298       0x10 build/default/debug/_ext/1171490990/interrupts.o
 .debug_ranges  0x000002a8       0x18 build/default/debug/_ext/1171490990/exceptions.o
 .debug_ranges  0x000002c0       0x18 build/default/debug/_ext/1171490990/startup_xc32.o
 .debug_ranges  0x000002d8       0x10 build/default/debug/_ext/1360937237/main.o
 .debug_ranges  0x000002e8       0x20 C:/Program Files/Microchip/xc32/v5.00/bin/bin/../../lib/gcc/pic32c/13.2.1/../../../../pic32c/lib/thumb/v8-m.base/nofp\libpic32c.a(data_init.o)
 .debug_ranges  0x00000308       0x38 C:/Program Files/Microchip/xc32/v5.00/bin/bin/../../lib/gcc/pic32c/13.2.1/../../../../pic32c/lib/thumb/v8-m.base/nofp\libg-musl.a(__libc_start_main.o)
 .debug_ranges  0x00000340       0x10 C:/Program Files/Microchip/xc32/v5.00/bin/bin/../../lib/gcc/pic32c/13.2.1/../../../../pic32c/lib/thumb/v8-m.base/nofp\libpic32c.a(pic32_data_init_clear.o)
 .debug_ranges  0x00000350       0x10 C:/Program Files/Microchip/xc32/v5.00/bin/bin/../../lib/gcc/pic32c/13.2.1/../../../../pic32c/lib/thumb/v8-m.base/nofp\libpic32c.a(pic32_data_init_copy.o)

.debug_line     0x00000000     0x2730
 .debug_line    0x00000000      0x468 build/default/debug/_ext/60163342/plib_adc.o
 .debug_line    0x00000468      0x26b build/default/debug/_ext/1984496892/plib_clock.o
 .debug_line    0x000006d3       0x66 build/default/debug/_ext/1986646378/plib_evsys.o
 .debug_line    0x00000739      0x364 build/default/debug/_ext/1865468468/plib_nvic.o
 .debug_line    0x00000a9d      0x4c1 build/default/debug/_ext/1593096446/plib_nvmctrl.o
 .debug_line    0x00000f5e      0x2ad build/default/debug/_ext/829342769/plib_pm.o
 .debug_line    0x0000120b      0x2d0 build/default/debug/_ext/1865521619/plib_port.o
 .debug_line    0x000014db      0x444 build/default/debug/_ext/1827571544/plib_systick.o
 .debug_line    0x0000191f      0x2b0 build/default/debug/_ext/1171490990/initialization.o
 .debug_line    0x00001bcf       0xce build/default/debug/_ext/1171490990/interrupts.o
 .debug_line    0x00001c9d       0x77 build/default/debug/_ext/1171490990/exceptions.o
 .debug_line    0x00001d14      0x15b build/default/debug/_ext/1171490990/startup_xc32.o
 .debug_line    0x00001e6f      0x18a build/default/debug/_ext/1360937237/main.o
 .debug_line    0x00001ff9      0x165 C:/Program Files/Microchip/xc32/v5.00/bin/bin/../../lib/gcc/pic32c/13.2.1/../../../../pic32c/lib/thumb/v8-m.base/nofp\libpic32c.a(data_init.o)
 .debug_line    0x0000215e      0x1ce C:/Program Files/Microchip/xc32/v5.00/bin/bin/../../lib/gcc/pic32c/13.2.1/../../../../pic32c/lib/thumb/v8-m.base/nofp\libg-musl.a(__libc_start_main.o)
 .debug_line    0x0000232c       0xb5 C:/Program Files/Microchip/xc32/v5.00/bin/bin/../../lib/gcc/pic32c/13.2.1/../../../../pic32c/lib/thumb/v8-m.base/nofp\libg-musl.a(libc.o)
 .debug_line    0x000023e1       0xfb C:/Program Files/Microchip/xc32/v5.00/bin/bin/../../lib/gcc/pic32c/13.2.1/../../../../pic32c/lib/thumb/v8-m.base/nofp\libg-musl.a(__environ.o)
 .debug_line    0x000024dc      0x11e C:/Program Files/Microchip/xc32/v5.00/bin/bin/../../lib/gcc/pic32c/13.2.1/../../../../pic32c/lib/thumb/v8-m.base/nofp\libpic32c.a(pic32_data_init_clear.o)
 .debug_line    0x000025fa      0x136 C:/Program Files/Microchip/xc32/v5.00/bin/bin/../../lib/gcc/pic32c/13.2.1/../../../../pic32c/lib/thumb/v8-m.base/nofp\libpic32c.a(pic32_data_init_copy.o)

.debug_str      0x00000000     0x3122
 .debug_str     0x00000000     0x3122 build/default/debug/_ext/60163342/plib_adc.o
                                0x96a (size before relaxing)
 .debug_str     0x00003122      0x6f5 build/default/debug/_ext/1984496892/plib_clock.o
 .debug_str     0x00003122      0x2d9 build/default/debug/_ext/1986646378/plib_evsys.o
 .debug_str     0x00003122      0x8b9 build/default/debug/_ext/1865468468/plib_nvic.o
 .debug_str     0x00003122      0x6a6 build/default/debug/_ext/1593096446/plib_nvmctrl.o
 .debug_str     0x00003122      0x3dc build/default/debug/_ext/829342769/plib_pm.o
 .debug_str     0x00003122      0xa29 build/default/debug/_ext/1865521619/plib_port.o
 .debug_str     0x00003122      0x519 build/default/debug/_ext/1827571544/plib_systick.o
 .debug_str     0x00003122      0x4b6 build/default/debug/_ext/1171490990/initialization.o
 .debug_str     0x00003122      0x9e8 build/default/debug/_ext/1171490990/interrupts.o
 .debug_str     0x00003122      0x2e0 build/default/debug/_ext/1171490990/exceptions.o
 .debug_str     0x00003122      0x357 build/default/debug/_ext/1171490990/startup_xc32.o
 .debug_str     0x00003122      0x38d build/default/debug/_ext/1360937237/main.o
 .debug_str     0x00003122      0x2f8 C:/Program Files/Microchip/xc32/v5.00/bin/bin/../../lib/gcc/pic32c/13.2.1/../../../../pic32c/lib/thumb/v8-m.base/nofp\libpic32c.a(data_init.o)
 .debug_str     0x00003122      0x3e6 C:/Program Files/Microchip/xc32/v5.00/bin/bin/../../lib/gcc/pic32c/13.2.1/../../../../pic32c/lib/thumb/v8-m.base/nofp\libg-musl.a(__libc_start_main.o)
 .debug_str     0x00003122      0x351 C:/Program Files/Microchip/xc32/v5.00/bin/bin/../../lib/gcc/pic32c/13.2.1/../../../../pic32c/lib/thumb/v8-m.base/nofp\libg-musl.a(libc.o)
 .debug_str     0x00003122      0x251 C:/Program Files/Microchip/xc32/v5.00/bin/bin/../../lib/gcc/pic32c/13.2.1/../../../../pic32c/lib/thumb/v8-m.base/nofp\libg-musl.a(__environ.o)
 .debug_str     0x00003122      0x289 C:/Program Files/Microchip/xc32/v5.00/bin/bin/../../lib/gcc/pic32c/13.2.1/../../../../pic32c/lib/thumb/v8-m.base/nofp\libpic32c.a(pic32_data_init_clear.o)
 .debug_str     0x00003122      0x290 C:/Program Files/Microchip/xc32/v5.00/bin/bin/../../lib/gcc/pic32c/13.2.1/../../../../pic32c/lib/thumb/v8-m.base/nofp\libpic32c.a(pic32_data_init_copy.o)

.debug_frame    0x00000000      0x708
 .debug_frame   0x00000000       0xe0 build/default/debug/_ext/60163342/plib_adc.o
 .debug_frame   0x000000e0       0x20 build/default/debug/_ext/1984496892/plib_clock.o
 .debug_frame   0x00000100       0x20 build/default/debug/_ext/1986646378/plib_evsys.o
 .debug_frame   0x00000120       0x7c build/default/debug/_ext/1865468468/plib_nvic.o
 .debug_frame   0x0000019c      0x15c build/default/debug/_ext/1593096446/plib_nvmctrl.o
 .debug_frame   0x000002f8       0x60 build/default/debug/_ext/829342769/plib_pm.o
 .debug_frame   0x00000358       0xd8 build/default/debug/_ext/1865521619/plib_port.o
 .debug_frame   0x00000430      0x130 build/default/debug/_ext/1827571544/plib_systick.o
 .debug_frame   0x00000560       0x28 build/default/debug/_ext/1171490990/initialization.o
 .debug_frame   0x00000588       0x20 build/default/debug/_ext/1171490990/interrupts.o
 .debug_frame   0x000005a8       0x30 build/default/debug/_ext/1171490990/exceptions.o
 .debug_frame   0x000005d8       0x38 build/default/debug/_ext/1171490990/startup_xc32.o
 .debug_frame   0x00000610       0x30 build/default/debug/_ext/1360937237/main.o
 .debug_frame   0x00000640       0x48 C:/Program Files/Microchip/xc32/v5.00/bin/bin/../../lib/gcc/pic32c/13.2.1/../../../../pic32c/lib/thumb/v8-m.base/nofp\libpic32c.a(data_init.o)
 .debug_frame   0x00000688       0x38 C:/Program Files/Microchip/xc32/v5.00/bin/bin/../../lib/gcc/pic32c/13.2.1/../../../../pic32c/lib/thumb/v8-m.base/nofp\libg-musl.a(__libc_start_main.o)
 .debug_frame   0x000006c0       0x20 C:/Program Files/Microchip/xc32/v5.00/bin/bin/../../lib/gcc/pic32c/13.2.1/../../../../pic32c/lib/thumb/v8-m.base/nofp\libpic32c.a(pic32_data_init_clear.o)
 .debug_frame   0x000006e0       0x28 C:/Program Files/Microchip/xc32/v5.00/bin/bin/../../lib/gcc/pic32c/13.2.1/../../../../pic32c/lib/thumb/v8-m.base/nofp\libpic32c.a(pic32_data_init_copy.o)

.note.GNU-stack
                0x00000000        0x0
 .note.GNU-stack
                0x00000000        0x0 C:/Program Files/Microchip/xc32/v5.00/bin/bin/../../lib/gcc/pic32c/13.2.1/../../../../pic32c/lib/thumb/v8-m.base/nofp\libg-musl.a(__libc_start_main.o)
 .note.GNU-stack
                0x00000000        0x0 C:/Program Files/Microchip/xc32/v5.00/bin/bin/../../lib/gcc/pic32c/13.2.1/../../../../pic32c/lib/thumb/v8-m.base/nofp\libg-musl.a(libc.o)
 .note.GNU-stack
                0x00000000        0x0 C:/Program Files/Microchip/xc32/v5.00/bin/bin/../../lib/gcc/pic32c/13.2.1/../../../../pic32c/lib/thumb/v8-m.base/nofp\libg-musl.a(__environ.o)

.vfp11_veneer%z1

.v4_bx%z2

.iplt%z3

.rel.iplt%z4

.igot.plt%z5

.bss%1          0x20000000       0x50
 .bss           0x20000000       0x50 C:/Program Files/Microchip/xc32/v5.00/bin/bin/../../lib/gcc/pic32c/13.2.1/../../../../pic32c/lib/thumb/v8-m.base/nofp\libg-musl.a(libc.o)
                0x20000000                __progname_full
                0x20000000                program_invocation_name
                0x20000004                program_invocation_short_name
                0x20000004                __progname
                0x20000008                __sysinfo
                0x2000000c                __hwcap
                0x20000010                __libc

.bss%2          0x20000050       0x1c
 .bss           0x20000050       0x1c C:/Program Files/Microchip/xc32/v5.00/bin/bin/../../lib/gcc/pic32c/13.2.1/thumb/v8-m.base/nofp/crtbegin.o

.bss.systick%3  0x2000006c        0xc
 .bss.systick   0x2000006c        0xc build/default/debug/_ext/1827571544/plib_systick.o

.bss.input_voltage%4
                0x20000078        0x4
 .bss.input_voltage
                0x20000078        0x4 build/default/debug/_ext/1360937237/main.o
                0x20000078                input_voltage

.bss%5          0x2000007c        0x4
 .bss           0x2000007c        0x4 C:/Program Files/Microchip/xc32/v5.00/bin/bin/../../lib/gcc/pic32c/13.2.1/../../../../pic32c/lib/thumb/v8-m.base/nofp\libpic32c.a(data_init.o)

.bss%6          0x20000080        0x4
 .bss           0x20000080        0x4 C:/Program Files/Microchip/xc32/v5.00/bin/bin/../../lib/gcc/pic32c/13.2.1/../../../../pic32c/lib/thumb/v8-m.base/nofp\libg-musl.a(__environ.o)
                0x20000080                __environ
                0x20000080                environ
                0x20000080                ___environ
                0x20000080                _environ

.bss.adc_count%7
                0x20000084        0x2
 .bss.adc_count
                0x20000084        0x2 build/default/debug/_ext/1360937237/main.o
                0x20000084                adc_count

.eh_frame%z6    0x00000000        0x0
 .eh_frame      0x00000000        0x0 C:/Program Files/Microchip/xc32/v5.00/bin/bin/../../lib/gcc/pic32c/13.2.1/thumb/v8-m.base/nofp/crtbegin.o

.config_0080C004%8
                0x0080c004        0x4
 .config_0080C004
                0x0080c004        0x4 build/default/debug/_ext/1171490990/initialization.o
                0x0080c004                __config_0080C004

.config_0080C040%9
                0x0080c040        0x4
 .config_0080C040
                0x0080c040        0x4 build/default/debug/_ext/1171490990/initialization.o
                0x0080c040                __config_0080C040

.config_0080C044%10
                0x0080c044        0x4
 .config_0080C044
                0x0080c044        0x4 build/default/debug/_ext/1171490990/initialization.o
                0x0080c044                __config_0080C044

.config_0080C048%11
                0x0080c048        0x4
 .config_0080C048
                0x0080c048        0x4 build/default/debug/_ext/1171490990/initialization.o
                0x0080c048                __config_0080C048

.config_0080C04C%12
                0x0080c04c        0x4
 .config_0080C04C
                0x0080c04c        0x4 build/default/debug/_ext/1171490990/initialization.o
                0x0080c04c                __config_0080C04C

.text.CLOCK_Initialize%13
                0x0000017c       0xc4
 .text.CLOCK_Initialize
                0x0000017c       0xc4 build/default/debug/_ext/1984496892/plib_clock.o
                0x0000017c                CLOCK_Initialize

.text.__aeabi_fmul%14
                0x00000240       0xb6
 .text.__aeabi_fmul
                0x00000240       0xb6 C:/Program Files/Microchip/xc32/v5.00/bin/bin/../../lib/gcc/pic32c/13.2.1/../../../../pic32c/lib/thumb/v8-m.base/nofp\libm-fast-emfloat.a(__aeabi_fmul.o)
                0x00000240                __aeabi_fmul

.text.__aeabi_fdiv%15
                0x000002f6       0x94
 .text.__aeabi_fdiv
                0x000002f6       0x94 C:/Program Files/Microchip/xc32/v5.00/bin/bin/../../lib/gcc/pic32c/13.2.1/../../../../pic32c/lib/thumb/v8-m.base/nofp\libm-fast-emfloat.a(__aeabi_fdiv.o)
                0x000002f6                __aeabi_fdiv

.text.ADC_Initialize%16
                0x0000038a       0x68
 .text.ADC_Initialize
                0x0000038a       0x68 build/default/debug/_ext/60163342/plib_adc.o
                0x0000038a                ADC_Initialize

.text.main%17   0x000003f2       0x5e
 .text.main     0x000003f2       0x5e build/default/debug/_ext/1360937237/main.o
                0x000003f2                main

.text.__libc_start_init%18
                0x00000450       0x5c
 .text.__libc_start_init
                0x00000450       0x5c C:/Program Files/Microchip/xc32/v5.00/bin/bin/../../lib/gcc/pic32c/13.2.1/../../../../pic32c/lib/thumb/v8-m.base/nofp\libg-musl.a(__libc_start_main.o)
                0x00000450                __libc_init_array

.text.Reset_Handler%19
                0x000004ac       0x56
 .text.Reset_Handler
                0x000004ac       0x56 build/default/debug/_ext/1171490990/startup_xc32.o
                0x000004ac                Reset_Handler

.dinit%20       0x00000504       0x50
 .dinit         0x00000504       0x50 data_init

.text.SYSTICK_DelayMs%21
                0x00000554       0x4c
 .text.SYSTICK_DelayMs
                0x00000554       0x4c build/default/debug/_ext/1827571544/plib_systick.o
                0x00000554                SYSTICK_DelayMs

.text%22        0x000005a0       0x40
 .text          0x000005a0       0x40 C:/Program Files/Microchip/xc32/v5.00/bin/bin/../../lib/gcc/pic32c/13.2.1/thumb/v8-m.base/nofp/crtbegin.o

.text.PM_Initialize%23
                0x000005e0       0x38
 .text.PM_Initialize
                0x000005e0       0x38 build/default/debug/_ext/829342769/plib_pm.o
                0x000005e0                PM_Initialize

.text.__pic32c_data_initialization%24
                0x00000618       0x34
 .text.__pic32c_data_initialization
                0x00000618       0x34 C:/Program Files/Microchip/xc32/v5.00/bin/bin/../../lib/gcc/pic32c/13.2.1/../../../../pic32c/lib/thumb/v8-m.base/nofp\libpic32c.a(data_init.o)
                0x00000618                __pic32c_data_initialization

.text.SYS_Initialize%25
                0x0000064c       0x30
 .text.SYS_Initialize
                0x0000064c       0x30 build/default/debug/_ext/1171490990/initialization.o
                0x0000064c                SYS_Initialize

.text.SysTick_Handler%26
                0x0000067c       0x2e
 .text.SysTick_Handler
                0x0000067c       0x2e build/default/debug/_ext/1827571544/plib_systick.o
                0x0000067c                SysTick_Handler

.text.SYSTICK_TimerInitialize%27
                0x000006aa       0x26
 .text.SYSTICK_TimerInitialize
                0x000006aa       0x26 build/default/debug/_ext/1827571544/plib_systick.o
                0x000006aa                SYSTICK_TimerInitialize

.text.ADC_ConversionStart%28
                0x000006d0       0x22
 .text.ADC_ConversionStart
                0x000006d0       0x22 build/default/debug/_ext/60163342/plib_adc.o
                0x000006d0                ADC_ConversionStart

.text.ADC_ConversionStatusGet%29
                0x000006f2       0x22
 .text.ADC_ConversionStatusGet
                0x000006f2       0x22 build/default/debug/_ext/60163342/plib_adc.o
                0x000006f2                ADC_ConversionStatusGet

.text.ADC_Enable%30
                0x00000714       0x20
 .text.ADC_Enable
                0x00000714       0x20 build/default/debug/_ext/60163342/plib_adc.o
                0x00000714                ADC_Enable

.text.__aeabi_ui2f%31
                0x00000734       0x1e
 .text.__aeabi_ui2f
                0x00000734       0x1e C:/Program Files/Microchip/xc32/v5.00/bin/bin/../../lib/gcc/pic32c/13.2.1/../../../../pic32c/lib/thumb/v8-m.base/nofp\libm-fast-emfloat.a(__aeabi_ui2f.o)
                0x00000734                __aeabi_ui2f

.text.__dinit_copy%32
                0x00000752       0x1e
 .text.__dinit_copy
                0x00000752       0x1e C:/Program Files/Microchip/xc32/v5.00/bin/bin/../../lib/gcc/pic32c/13.2.1/../../../../pic32c/lib/thumb/v8-m.base/nofp\libpic32c.a(pic32_data_init_copy.o)
                0x00000752                __dinit_copy_needed
                0x00000752                __dinit_copy

.text.PORT_Initialize%33
                0x00000770       0x16
 .text.PORT_Initialize
                0x00000770       0x16 build/default/debug/_ext/1865521619/plib_port.o
                0x00000770                PORT_Initialize

.text.SYSTICK_TimerStart%34
                0x00000786       0x16
 .text.SYSTICK_TimerStart
                0x00000786       0x16 build/default/debug/_ext/1827571544/plib_systick.o
                0x00000786                SYSTICK_TimerStart

.rodata%35      0x0000079c       0x14
 .rodata        0x0000079c       0x14 C:/Program Files/Microchip/xc32/v5.00/bin/bin/../../lib/gcc/pic32c/13.2.1/../../../../pic32c/lib/thumb/v8-m.base/nofp\libpic32c.a(data_init.o)

.text.NVMCTRL_Initialize%36
                0x000007b0       0x12
 .text.NVMCTRL_Initialize
                0x000007b0       0x12 build/default/debug/_ext/1593096446/plib_nvmctrl.o
                0x000007b0                NVMCTRL_Initialize

.text.__dinit_clear%37
                0x000007c2       0x12
 .text.__dinit_clear
                0x000007c2       0x12 C:/Program Files/Microchip/xc32/v5.00/bin/bin/../../lib/gcc/pic32c/13.2.1/../../../../pic32c/lib/thumb/v8-m.base/nofp\libpic32c.a(pic32_data_init_clear.o)
                0x000007c2                __dinit_clear
                0x000007c2                __dinit_clear_needed

.text.ADC_ConversionResultGet%38
                0x000007d4        0xe
 .text.ADC_ConversionResultGet
                0x000007d4        0xe build/default/debug/_ext/60163342/plib_adc.o
                0x000007d4                ADC_ConversionResultGet

.text.NVIC_Initialize%39
                0x000007e2        0x8
 .text.NVIC_Initialize
                0x000007e2        0x8 build/default/debug/_ext/1865468468/plib_nvic.o
                0x000007e2                NVIC_Initialize

.text.Dummy_Handler%40
                0x000007ea        0x4
 .text.Dummy_Handler
                0x000007ea        0x4 build/default/debug/_ext/1171490990/interrupts.o
                0x000007ea                SVCall_Handler
                0x000007ea                SERCOM0_2_Handler
                0x000007ea                EVSYS_0_Handler
                0x000007ea                TRNG_Handler
                0x000007ea                ADC_RESRDY_Handler
                0x000007ea                TC2_Handler
                0x000007ea                AC_Handler
                0x000007ea                DMAC_OTHER_Handler
                0x000007ea                EIC_EXTINT_5_Handler
                0x000007ea                SERCOM3_1_Handler
                0x000007ea                SERCOM4_OTHER_Handler
                0x000007ea                SERCOM3_2_Handler
                0x000007ea                EIC_EXTINT_6_Handler
                0x000007ea                PendSV_Handler
                0x000007ea                EVSYS_3_Handler
                0x000007ea                TCC1_Handler
                0x000007ea                EIC_EXTINT_4_Handler
                0x000007ea                EIC_EXTINT_7_Handler
                0x000007ea                SERCOM0_OTHER_Handler
                0x000007ea                TCC0_Handler
                0x000007ea                SERCOM0_0_Handler
                0x000007ea                RTC_Handler
                0x000007ea                SERCOM4_0_Handler
                0x000007ea                SERCOM1_OTHER_Handler
                0x000007ea                EVSYS_1_Handler
                0x000007ea                DMAC_0_Handler
                0x000007ea                WDT_Handler
                0x000007ea                TRAM_Handler
                0x000007ea                EIC_EXTINT_1_Handler
                0x000007ea                SERCOM5_0_Handler
                0x000007ea                TC1_Handler
                0x000007ea                EIC_EXTINT_0_Handler
                0x000007ea                DAC_UNDERRUN_Handler
                0x000007ea                DAC_EMPTY_Handler
                0x000007ea                PAC_Handler
                0x000007ea                USB_Handler
                0x000007ea                SERCOM4_1_Handler
                0x000007ea                Dummy_Handler
                0x000007ea                SERCOM5_1_Handler
                0x000007ea                DMAC_2_Handler
                0x000007ea                SERCOM0_1_Handler
                0x000007ea                SERCOM5_OTHER_Handler
                0x000007ea                DMAC_1_Handler
                0x000007ea                TCC3_Handler
                0x000007ea                TCC2_Handler
                0x000007ea                EIC_EXTINT_2_Handler
                0x000007ea                SERCOM1_1_Handler
                0x000007ea                EVSYS_7_Handler
                0x000007ea                I2S_Handler
                0x000007ea                NVMCTRL_Handler
                0x000007ea                SYSTEM_Handler
                0x000007ea                SERCOM1_0_Handler
                0x000007ea                SERCOM2_1_Handler
                0x000007ea                SERCOM1_2_Handler
                0x000007ea                SERCOM3_0_Handler
                0x000007ea                SERCOM4_2_Handler
                0x000007ea                EVSYS_4_Handler
                0x000007ea                SERCOM5_2_Handler
                0x000007ea                SERCOM2_2_Handler
                0x000007ea                EIC_EXTINT_3_Handler
                0x000007ea                SERCOM3_OTHER_Handler
                0x000007ea                PTC_Handler
                0x000007ea                EVSYS_6_Handler
                0x000007ea                EVSYS_5_Handler
                0x000007ea                EVSYS_2_Handler
                0x000007ea                SERCOM2_OTHER_Handler
                0x000007ea                FREQM_Handler
                0x000007ea                TC0_Handler
                0x000007ea                EIC_OTHER_Handler
                0x000007ea                ADC_OTHER_Handler
                0x000007ea                DMAC_3_Handler
                0x000007ea                SERCOM2_0_Handler

.text.NonMaskableInt_Handler%41
                0x000007ee        0x4
 .text.NonMaskableInt_Handler
                0x000007ee        0x4 build/default/debug/_ext/1171490990/exceptions.o
                0x000007ee                NonMaskableInt_Handler

.text.HardFault_Handler%42
                0x000007f2        0x4
 .text.HardFault_Handler
                0x000007f2        0x4 build/default/debug/_ext/1171490990/exceptions.o
                0x000007f2                HardFault_Handler

.text.__dummy_decompress%43
                0x000007f6        0x4
 .text.__dummy_decompress
                0x000007f6        0x4 C:/Program Files/Microchip/xc32/v5.00/bin/bin/../../lib/gcc/pic32c/13.2.1/../../../../pic32c/lib/thumb/v8-m.base/nofp\libpic32c.a(data_init.o)
                0x000007f6                __dinit_decompress
                0x000007f6                __dinit_copy_val_data
                0x000007f6                __dinit_copy_emb

.text.EVSYS_Initialize%44
                0x00000502        0x2
 .text.EVSYS_Initialize
                0x00000502        0x2 build/default/debug/_ext/1986646378/plib_evsys.o
                0x00000502                EVSYS_Initialize

.text.Dummy_App_Func%45
                0x000007fa        0x2
 .text.Dummy_App_Func
                0x000007fa        0x2 build/default/debug/_ext/1171490990/startup_xc32.o
                0x000007fa                _on_reset
                0x000007fa                _on_bootstrap
                0x000007fa                __xc32_on_reset
                0x000007fa                Dummy_App_Func
                0x000007fa                __xc32_on_bootstrap

.text.__dummy_init_tls%46
                0x000007fc        0x2
 .text.__dummy_init_tls
                0x000007fc        0x2 C:/Program Files/Microchip/xc32/v5.00/bin/bin/../../lib/gcc/pic32c/13.2.1/../../../../pic32c/lib/thumb/v8-m.base/nofp\libpic32c.a(data_init.o)
                0x000007fc                xc32_init_tls

.text.__dummy%47
                0x000007fe        0x2
 .text.__dummy  0x000007fe        0x2 C:/Program Files/Microchip/xc32/v5.00/bin/bin/../../lib/gcc/pic32c/13.2.1/../../../../pic32c/lib/thumb/v8-m.base/nofp\libg-musl.a(__libc_start_main.o)
                0x000007fe                __init_stdio
                0x000007fe                __init_host
